
Dump of file experiments\lab02_asm_c_optimization\src\work\Release\汇编和C混合编程示例.exe

File Type: EXECUTABLE IMAGE

___local_stdio_printf_options:
  00401000: B8 C8 50 40 00     mov         eax,offset ?_OptionsStorage@?1??__local_stdio_printf_options@@9@9
  00401005: C3                 ret
  00401006: CC CC CC CC CC CC CC CC CC CC                    ..........
_printf:
  00401010: 55                 push        ebp
  00401011: 8B EC              mov         ebp,esp
  00401013: 83 E4 F8           and         esp,0FFFFFFF8h
  00401016: 51                 push        ecx
  00401017: 56                 push        esi
  00401018: 8B 75 08           mov         esi,dword ptr [ebp+8]
  0040101B: 6A 01              push        1
  0040101D: FF 15 B4 30 40 00  call        dword ptr [__imp____acrt_iob_func]
  00401023: 83 C4 04           add         esp,4
  00401026: 8D 4D 0C           lea         ecx,[ebp+0Ch]
  00401029: 51                 push        ecx
  0040102A: 6A 00              push        0
  0040102C: 56                 push        esi
  0040102D: 50                 push        eax
  0040102E: E8 CD FF FF FF     call        ___local_stdio_printf_options
  00401033: FF 70 04           push        dword ptr [eax+4]
  00401036: FF 30              push        dword ptr [eax]
  00401038: FF 15 B0 30 40 00  call        dword ptr [__imp____stdio_common_vfprintf]
  0040103E: 83 C4 18           add         esp,18h
  00401041: 5E                 pop         esi
  00401042: 8B E5              mov         esp,ebp
  00401044: 5D                 pop         ebp
  00401045: C3                 ret
  00401046: CC CC CC CC CC CC CC CC CC CC                    ..........
_sprintf:
  00401050: 55                 push        ebp
  00401051: 8B EC              mov         ebp,esp
  00401053: 8B 45 08           mov         eax,dword ptr [ebp+8]
  00401056: 8D 4D 10           lea         ecx,[ebp+10h]
  00401059: 51                 push        ecx
  0040105A: 6A 00              push        0
  0040105C: FF 75 0C           push        dword ptr [ebp+0Ch]
  0040105F: 6A FF              push        0FFFFFFFFh
  00401061: 50                 push        eax
  00401062: E8 99 FF FF FF     call        ___local_stdio_printf_options
  00401067: 8B 08              mov         ecx,dword ptr [eax]
  00401069: FF 70 04           push        dword ptr [eax+4]
  0040106C: 83 C9 01           or          ecx,1
  0040106F: 51                 push        ecx
  00401070: FF 15 AC 30 40 00  call        dword ptr [__imp____stdio_common_vsprintf]
  00401076: 83 C9 FF           or          ecx,0FFFFFFFFh
  00401079: 83 C4 1C           add         esp,1Ch
  0040107C: 85 C0              test        eax,eax
  0040107E: 0F 48 C1           cmovs       eax,ecx
  00401081: 5D                 pop         ebp
  00401082: C3                 ret
  00401083: CC CC CC CC CC CC CC CC CC CC CC CC CC           .............
init_students:
  00401090: 53                 push        ebx
  00401091: 8B DC              mov         ebx,esp
  00401093: 83 EC 08           sub         esp,8
  00401096: 83 E4 F0           and         esp,0FFFFFFF0h
  00401099: 83 C4 04           add         esp,4
  0040109C: 55                 push        ebp
  0040109D: 8B 6B 04           mov         ebp,dword ptr [ebx+4]
  004010A0: 89 6C 24 04        mov         dword ptr [esp+4],ebp
  004010A4: 8B EC              mov         ebp,esp
  004010A6: 83 EC 78           sub         esp,78h
  004010A9: 56                 push        esi
  004010AA: 57                 push        edi
  004010AB: 33 FF              xor         edi,edi
  004010AD: 89 55 E4           mov         dword ptr [ebp-1Ch],edx
  004010B0: 89 7D F0           mov         dword ptr [ebp-10h],edi
  004010B3: 8B C1              mov         eax,ecx
  004010B5: 89 45 F4           mov         dword ptr [ebp-0Ch],eax
  004010B8: 85 D2              test        edx,edx
  004010BA: 0F 8E 6F 02 00 00  jle         0040132F
  004010C0: 0F 10 05 20 35 40  movups      xmm0,xmmword ptr [__xmm@000000380000002d0000002200000017]
            00
  004010C7: 8D 48 08           lea         ecx,[eax+8]
  004010CA: C7 45 EC 2E 00 00  mov         dword ptr [ebp-14h],2Eh
            00
  004010D1: 89 4D F8           mov         dword ptr [ebp-8],ecx
  004010D4: 33 C9              xor         ecx,ecx
  004010D6: 0F 29 45 D0        movaps      xmmword ptr [ebp-30h],xmm0
  004010DA: 0F 10 05 50 35 40  movups      xmm0,xmmword ptr [__xmm@b21642c9b21642c9b21642c9b21642c9]
            00
  004010E1: 89 4D FC           mov         dword ptr [ebp-4],ecx
  004010E4: 0F 29 45 C0        movaps      xmmword ptr [ebp-40h],xmm0
  004010E8: 0F 10 05 10 35 40  movups      xmm0,xmmword ptr [__xmm@0000002e0000002e0000002e0000002e]
            00
  004010EF: 0F 29 45 B0        movaps      xmmword ptr [ebp-50h],xmm0
  004010F3: 0F 10 05 40 35 40  movups      xmm0,xmmword ptr [__xmm@00370037003700370037003700370037]
            00
  004010FA: 0F 29 45 A0        movaps      xmmword ptr [ebp-60h],xmm0
  004010FE: 0F 10 05 30 35 40  movups      xmm0,xmmword ptr [__xmm@00000064000000590000004e00000043]
            00
  00401105: 0F 29 45 90        movaps      xmmword ptr [ebp-70h],xmm0
  00401109: 0F 1F 80 00 00 00  nop         dword ptr [eax]
            00
  00401110: 8D 34 01           lea         esi,[ecx+eax]
  00401113: 03 4D F8           add         ecx,dword ptr [ebp-8]
  00401116: C7 46 08 00 00 00  mov         dword ptr [esi+8],0
            00
  0040111D: 33 C0              xor         eax,eax
  0040111F: C7 46 0C 00 00 00  mov         dword ptr [esi+0Ch],0
            00
  00401126: 0F 57 C0           xorps       xmm0,xmm0
  00401129: C7 46 10 00 00 00  mov         dword ptr [esi+10h],0
            00
  00401130: C7 46 14 00 00 00  mov         dword ptr [esi+14h],0
            00
  00401137: C7 46 18 00 00 00  mov         dword ptr [esi+18h],0
            00
  0040113E: C7 46 1C 00 00 00  mov         dword ptr [esi+1Ch],0
            00
  00401145: C7 46 20 00 00 00  mov         dword ptr [esi+20h],0
            00
  0040114C: 66 89 46 24        mov         word ptr [esi+24h],ax
  00401150: 66 0F D6 06        movq        mmword ptr [esi],xmm0
  00401154: 85 FF              test        edi,edi
  00401156: 75 37              jne         0040118F
  00401158: A1 E4 34 40 00     mov         eax,dword ptr ds:[004034E4h]
  0040115D: 89 06              mov         dword ptr [esi],eax
  0040115F: 66 A1 E8 34 40 00  mov         ax,word ptr ds:[004034E8h]
  00401165: 66 89 46 04        mov         word ptr [esi+4],ax
  00401169: A0 EA 34 40 00     mov         al,byte ptr ds:[004034EAh]
  0040116E: 88 46 06           mov         byte ptr [esi+6],al
  00401171: 6A 0A              push        0Ah
  00401173: 66 0F D6 01        movq        mmword ptr [ecx],xmm0
  00401177: 68 4C 31 40 00     push        offset ??_C@_0L@CNCPCBLO@U202414558@
  0040117C: 66 89 79 08        mov         word ptr [ecx+8],di
  00401180: 51                 push        ecx
  00401181: C6 41 0A 00        mov         byte ptr [ecx+0Ah],0
  00401185: E8 CE 18 00 00     call        _strncpy
  0040118A: 83 C4 0C           add         esp,0Ch
  0040118D: EB 30              jmp         004011BF
  0040118F: 8D 47 FF           lea         eax,[edi-1]
  00401192: B9 09 00 00 00     mov         ecx,9
  00401197: 99                 cdq
  00401198: F7 F9              idiv        eax,ecx
  0040119A: 6A 07              push        7
  0040119C: 8B 04 95 C0 34 40  mov         eax,dword ptr [edx*4+4034C0h]
            00
  004011A3: 50                 push        eax
  004011A4: 56                 push        esi
  004011A5: E8 AE 18 00 00     call        _strncpy
  004011AA: 8B 45 F8           mov         eax,dword ptr [ebp-8]
  004011AD: 03 45 FC           add         eax,dword ptr [ebp-4]
  004011B0: 57                 push        edi
  004011B1: 68 58 31 40 00     push        offset ??_C@_0M@HGAOJHFI@U202414?$CF03d@
  004011B6: 50                 push        eax
  004011B7: E8 94 FE FF FF     call        _sprintf
  004011BC: 83 C4 18           add         esp,18h
  004011BF: 83 3D B4 50 40 00  cmp         dword ptr [___isa_available],2
            02
  004011C6: 0F 8C 0C 01 00 00  jl          004012D8
  004011CC: 0F 28 55 D0        movaps      xmm2,xmmword ptr [ebp-30h]
  004011D0: 8B C7              mov         eax,edi
  004011D2: 0F 28 65 C0        movaps      xmm4,xmmword ptr [ebp-40h]
  004011D6: C1 E0 04           shl         eax,4
  004011D9: 03 C7              add         eax,edi
  004011DB: 66 0F 6E C0        movd        xmm0,eax
  004011DF: 66 0F 70 D8 00     pshufd      xmm3,xmm0,0
  004011E4: 66 0F FE D3        paddd       xmm2,xmm3
  004011E8: 0F 28 CA           movaps      xmm1,xmm2
  004011EB: 0F 28 C2           movaps      xmm0,xmm2
  004011EE: 66 0F 6A C2        punpckhdq   xmm0,xmm2
  004011F2: 66 0F 38 28 C4     pmuldq      xmm0,xmm4
  004011F7: 66 0F 62 CA        punpckldq   xmm1,xmm2
  004011FB: 66 0F 38 28 CC     pmuldq      xmm1,xmm4
  00401200: 0F C6 C8 DD        shufps      xmm1,xmm0,0DDh
  00401204: 66 0F FE CA        paddd       xmm1,xmm2
  00401208: 66 0F 72 E1 05     psrad       xmm1,5
  0040120D: 0F 28 C1           movaps      xmm0,xmm1
  00401210: 66 0F 72 D0 1F     psrld       xmm0,1Fh
  00401215: 66 0F FE C1        paddd       xmm0,xmm1
  00401219: 66 0F 38 40 45 B0  pmulld      xmm0,xmmword ptr [ebp-50h]
  0040121F: 66 0F FA D0        psubd       xmm2,xmm0
  00401223: F3 0F 70 C2 D8     pshufhw     xmm0,xmm2,0D8h
  00401228: F2 0F 70 C0 D8     pshuflw     xmm0,xmm0,0D8h
  0040122D: 0F 28 55 90        movaps      xmm2,xmmword ptr [ebp-70h]
  00401231: 66 0F 70 C0 D8     pshufd      xmm0,xmm0,0D8h
  00401236: 66 0F FE D3        paddd       xmm2,xmm3
  0040123A: 66 0F FD 45 A0     paddw       xmm0,xmmword ptr [ebp-60h]
  0040123F: 0F 28 CA           movaps      xmm1,xmm2
  00401242: 66 0F C5 C0 00     pextrw      eax,xmm0,0
  00401247: 66 0F 62 CA        punpckldq   xmm1,xmm2
  0040124B: 66 0F 38 28 CC     pmuldq      xmm1,xmm4
  00401250: 66 89 46 14        mov         word ptr [esi+14h],ax
  00401254: 66 0F C5 C0 01     pextrw      eax,xmm0,1
  00401259: 66 89 46 16        mov         word ptr [esi+16h],ax
  0040125D: 66 0F C5 C0 02     pextrw      eax,xmm0,2
  00401262: 66 89 46 18        mov         word ptr [esi+18h],ax
  00401266: 66 0F C5 C0 03     pextrw      eax,xmm0,3
  0040126B: 0F 28 C2           movaps      xmm0,xmm2
  0040126E: 66 0F 6A C2        punpckhdq   xmm0,xmm2
  00401272: 66 0F 38 28 C4     pmuldq      xmm0,xmm4
  00401277: 0F C6 C8 DD        shufps      xmm1,xmm0,0DDh
  0040127B: 66 0F FE CA        paddd       xmm1,xmm2
  0040127F: 66 89 46 1A        mov         word ptr [esi+1Ah],ax
  00401283: 66 0F 72 E1 05     psrad       xmm1,5
  00401288: 0F 28 C1           movaps      xmm0,xmm1
  0040128B: 66 0F 72 D0 1F     psrld       xmm0,1Fh
  00401290: 66 0F FE C1        paddd       xmm0,xmm1
  00401294: 66 0F 38 40 45 B0  pmulld      xmm0,xmmword ptr [ebp-50h]
  0040129A: 66 0F FA D0        psubd       xmm2,xmm0
  0040129E: F3 0F 70 C2 D8     pshufhw     xmm0,xmm2,0D8h
  004012A3: F2 0F 70 C0 D8     pshuflw     xmm0,xmm0,0D8h
  004012A8: 66 0F 70 C0 D8     pshufd      xmm0,xmm0,0D8h
  004012AD: 66 0F FD 45 A0     paddw       xmm0,xmmword ptr [ebp-60h]
  004012B2: 66 0F C5 C0 00     pextrw      eax,xmm0,0
  004012B7: 66 89 46 1C        mov         word ptr [esi+1Ch],ax
  004012BB: 66 0F C5 C0 01     pextrw      eax,xmm0,1
  004012C0: 66 89 46 1E        mov         word ptr [esi+1Eh],ax
  004012C4: 66 0F C5 C0 02     pextrw      eax,xmm0,2
  004012C9: 66 89 46 20        mov         word ptr [esi+20h],ax
  004012CD: 66 0F C5 C0 03     pextrw      eax,xmm0,3
  004012D2: 66 89 46 22        mov         word ptr [esi+22h],ax
  004012D6: EB 37              jmp         0040130F
  004012D8: 8B D7              mov         edx,edi
  004012DA: 6B F7 13           imul        esi,edi,13h
  004012DD: C1 E2 04           shl         edx,4
  004012E0: 83 C2 17           add         edx,17h
  004012E3: 03 D7              add         edx,edi
  004012E5: 8B 7D F4           mov         edi,dword ptr [ebp-0Ch]
  004012E8: 89 55 E8           mov         dword ptr [ebp-18h],edx
  004012EB: 83 C6 0A           add         esi,0Ah
  004012EE: 33 C9              xor         ecx,ecx
  004012F0: 6B C1 0B           imul        eax,ecx,0Bh
  004012F3: 03 C2              add         eax,edx
  004012F5: 99                 cdq
  004012F6: F7 7D EC           idiv        eax,dword ptr [ebp-14h]
  004012F9: 8D 04 0E           lea         eax,[esi+ecx]
  004012FC: 41                 inc         ecx
  004012FD: 83 C2 37           add         edx,37h
  00401300: 66 89 14 47        mov         word ptr [edi+eax*2],dx
  00401304: 8B 55 E8           mov         edx,dword ptr [ebp-18h]
  00401307: 83 F9 08           cmp         ecx,8
  0040130A: 7C E4              jl          004012F0
  0040130C: 8B 7D F0           mov         edi,dword ptr [ebp-10h]
  0040130F: 8B 4D FC           mov         ecx,dword ptr [ebp-4]
  00401312: 33 D2              xor         edx,edx
  00401314: 8B 45 F4           mov         eax,dword ptr [ebp-0Ch]
  00401317: 47                 inc         edi
  00401318: 89 7D F0           mov         dword ptr [ebp-10h],edi
  0040131B: 66 89 54 08 24     mov         word ptr [eax+ecx+24h],dx
  00401320: 83 C1 26           add         ecx,26h
  00401323: 89 4D FC           mov         dword ptr [ebp-4],ecx
  00401326: 3B 7D E4           cmp         edi,dword ptr [ebp-1Ch]
  00401329: 0F 8C E1 FD FF FF  jl          00401110
  0040132F: 5F                 pop         edi
  00401330: 5E                 pop         esi
  00401331: 8B E5              mov         esp,ebp
  00401333: 5D                 pop         ebp
  00401334: 8B E3              mov         esp,ebx
  00401336: 5B                 pop         ebx
  00401337: C3                 ret
  00401338: CC CC CC CC CC CC CC CC                          ........
display_students:
  00401340: 55                 push        ebp
  00401341: 8B EC              mov         ebp,esp
  00401343: 83 EC 10           sub         esp,10h
  00401346: 53                 push        ebx
  00401347: 56                 push        esi
  00401348: 57                 push        edi
  00401349: 51                 push        ecx
  0040134A: 8B FA              mov         edi,edx
  0040134C: 68 64 31 40 00     push        offset ??_C@_04EINJHBMM@?6?$CFs?6@
  00401351: 89 7D F8           mov         dword ptr [ebp-8],edi
  00401354: E8 B7 FC FF FF     call        _printf
  00401359: 68 70 31 40 00     push        offset ??_C@_0EP@JOMMBOIE@idx?5name_bytes?5?5?5?5?5?5?5?5?5?5?5?5?5?5sid@
  0040135E: E8 AD FC FF FF     call        _printf
  00401363: 83 C4 0C           add         esp,0Ch
  00401366: 33 DB              xor         ebx,ebx
  00401368: 89 5D FC           mov         dword ptr [ebp-4],ebx
  0040136B: 0F 1F 44 00 00     nop         dword ptr [eax+eax]
  00401370: 53                 push        ebx
  00401371: 68 C0 31 40 00     push        offset ??_C@_05NLDACDCJ@?$CF2d?5?5@
  00401376: E8 95 FC FF FF     call        _printf
  0040137B: 83 C4 08           add         esp,8
  0040137E: 33 F6              xor         esi,esi
  00401380: 6B C3 26           imul        eax,ebx,26h
  00401383: 89 45 F4           mov         dword ptr [ebp-0Ch],eax
  00401386: 8D 1C 07           lea         ebx,[edi+eax]
  00401389: BF 04 31 40 00     mov         edi,offset ??_C@_01CLKCMJKC@?5@
  0040138E: 89 5D F0           mov         dword ptr [ebp-10h],ebx
  00401391: 83 FE 07           cmp         esi,7
  00401394: B8 00 31 40 00     mov         eax,offset ??_C@_00CNPNBAHC@@
  00401399: 0F 45 C7           cmovne      eax,edi
  0040139C: 50                 push        eax
  0040139D: 0F B6 04 33        movzx       eax,byte ptr [ebx+esi]
  004013A1: 50                 push        eax
  004013A2: 68 08 31 40 00     push        offset ??_C@_06BEKAFDIC@?$CF02X?$CFs@
  004013A7: E8 64 FC FF FF     call        _printf
  004013AC: 46                 inc         esi
  004013AD: 83 C4 0C           add         esp,0Ch
  004013B0: 83 FE 08           cmp         esi,8
  004013B3: 7C DC              jl          00401391
  004013B5: 8B 7D F8           mov         edi,dword ptr [ebp-8]
  004013B8: 8B 45 F4           mov         eax,dword ptr [ebp-0Ch]
  004013BB: 83 C7 08           add         edi,8
  004013BE: 03 C7              add         eax,edi
  004013C0: 50                 push        eax
  004013C1: 68 C8 31 40 00     push        offset ??_C@_07KKMIFEAN@?5?5?$CF?910s@
  004013C6: E8 45 FC FF FF     call        _printf
  004013CB: 6B 7D FC 13        imul        edi,dword ptr [ebp-4],13h
  004013CF: 83 C4 08           add         esp,8
  004013D2: 8B 5D F8           mov         ebx,dword ptr [ebp-8]
  004013D5: 33 F6              xor         esi,esi
  004013D7: 83 C7 0A           add         edi,0Ah
  004013DA: 66 0F 1F 44 00 00  nop         word ptr [eax+eax]
  004013E0: 8D 04 37           lea         eax,[edi+esi]
  004013E3: 0F BF 04 43        movsx       eax,word ptr [ebx+eax*2]
  004013E7: 50                 push        eax
  004013E8: 68 D0 31 40 00     push        offset ??_C@_04EIEMINIA@?5?$CF3d@
  004013ED: E8 1E FC FF FF     call        _printf
  004013F2: 46                 inc         esi
  004013F3: 83 C4 08           add         esp,8
  004013F6: 83 FE 08           cmp         esi,8
  004013F9: 7C E5              jl          004013E0
  004013FB: 8B 45 F0           mov         eax,dword ptr [ebp-10h]
  004013FE: 0F BF 40 24        movsx       eax,word ptr [eax+24h]
  00401402: 50                 push        eax
  00401403: 68 D8 31 40 00     push        offset ??_C@_08PEOOELED@?5?5?5?5?$CF3d?6@
  00401408: E8 03 FC FF FF     call        _printf
  0040140D: 8B 5D FC           mov         ebx,dword ptr [ebp-4]
  00401410: 83 C4 08           add         esp,8
  00401413: 8B 7D F8           mov         edi,dword ptr [ebp-8]
  00401416: 43                 inc         ebx
  00401417: 89 5D FC           mov         dword ptr [ebp-4],ebx
  0040141A: 83 FB 0A           cmp         ebx,0Ah
  0040141D: 0F 8C 4D FF FF FF  jl          00401370
  00401423: 5F                 pop         edi
  00401424: 5E                 pop         esi
  00401425: 5B                 pop         ebx
  00401426: 8B E5              mov         esp,ebp
  00401428: 5D                 pop         ebp
  00401429: C3                 ret
  0040142A: CC CC CC CC CC CC                                ......
_computeAverageScore_c:
  00401430: 55                 push        ebp
  00401431: 8B EC              mov         ebp,esp
  00401433: 53                 push        ebx
  00401434: 8B 5D 0C           mov         ebx,dword ptr [ebp+0Ch]
  00401437: 56                 push        esi
  00401438: 33 F6              xor         esi,esi
  0040143A: 85 DB              test        ebx,ebx
  0040143C: 7E 65              jle         004014A3
  0040143E: 8B 4D 08           mov         ecx,dword ptr [ebp+8]
  00401441: 57                 push        edi
  00401442: 33 FF              xor         edi,edi
  00401444: 0F 1F 40 00        nop         dword ptr [eax]
  00401448: 0F 1F 84 00 00 00  nop         dword ptr [eax+eax]
            00 00
  00401450: 0F BF 44 0F 1E     movsx       eax,word ptr [edi+ecx+1Eh]
  00401455: 8D 7F 26           lea         edi,[edi+26h]
  00401458: 0F BF 54 0F FA     movsx       edx,word ptr [edi+ecx-6]
  0040145D: 46                 inc         esi
  0040145E: 03 D0              add         edx,eax
  00401460: 0F BF 44 0F F6     movsx       eax,word ptr [edi+ecx-0Ah]
  00401465: 03 D0              add         edx,eax
  00401467: 0F BF 44 0F F4     movsx       eax,word ptr [edi+ecx-0Ch]
  0040146C: 0F BF 4C 0F F2     movsx       ecx,word ptr [edi+ecx-0Eh]
  00401471: 03 D0              add         edx,eax
  00401473: 8B 45 08           mov         eax,dword ptr [ebp+8]
  00401476: 03 D1              add         edx,ecx
  00401478: 0F BF 4C 07 F0     movsx       ecx,word ptr [edi+eax-10h]
  0040147D: 03 D1              add         edx,ecx
  0040147F: 0F BF 4C 07 EE     movsx       ecx,word ptr [edi+eax-12h]
  00401484: 0F BF 44 07 FC     movsx       eax,word ptr [edi+eax-4]
  00401489: 03 D1              add         edx,ecx
  0040148B: 8B 4D 08           mov         ecx,dword ptr [ebp+8]
  0040148E: 03 C2              add         eax,edx
  00401490: 99                 cdq
  00401491: 83 E2 07           and         edx,7
  00401494: 03 C2              add         eax,edx
  00401496: C1 F8 03           sar         eax,3
  00401499: 66 89 44 0F FE     mov         word ptr [edi+ecx-2],ax
  0040149E: 3B F3              cmp         esi,ebx
  004014A0: 7C AE              jl          00401450
  004014A2: 5F                 pop         edi
  004014A3: 5E                 pop         esi
  004014A4: 5B                 pop         ebx
  004014A5: 5D                 pop         ebp
  004014A6: C3                 ret
  004014A7: CC CC CC CC CC CC CC CC CC                       .........
_sortByAverage_bubble:
  004014B0: 55                 push        ebp
  004014B1: 8B EC              mov         ebp,esp
  004014B3: 83 EC 08           sub         esp,8
  004014B6: 8B 55 0C           mov         edx,dword ptr [ebp+0Ch]
  004014B9: 33 C9              xor         ecx,ecx
  004014BB: 89 4D FC           mov         dword ptr [ebp-4],ecx
  004014BE: 8D 42 FF           lea         eax,[edx-1]
  004014C1: 85 C0              test        eax,eax
  004014C3: 0F 8E 9F 00 00 00  jle         00401568
  004014C9: 53                 push        ebx
  004014CA: 56                 push        esi
  004014CB: 57                 push        edi
  004014CC: 0F 1F 40 00        nop         dword ptr [eax]
  004014D0: 8B DA              mov         ebx,edx
  004014D2: 33 F6              xor         esi,esi
  004014D4: 2B D9              sub         ebx,ecx
  004014D6: 4B                 dec         ebx
  004014D7: 89 5D F8           mov         dword ptr [ebp-8],ebx
  004014DA: 85 DB              test        ebx,ebx
  004014DC: 7E 78              jle         00401556
  004014DE: 8B 45 08           mov         eax,dword ptr [ebp+8]
  004014E1: 33 FF              xor         edi,edi
  004014E3: 8B 4D 08           mov         ecx,dword ptr [ebp+8]
  004014E6: 66 8B 44 38 24     mov         ax,word ptr [eax+edi+24h]
  004014EB: 66 3B 44 39 4A     cmp         ax,word ptr [ecx+edi+4Ah]
  004014F0: 8B C1              mov         eax,ecx
  004014F2: 7D 54              jge         00401548
  004014F4: 0F 10 44 38 26     movups      xmm0,xmmword ptr [eax+edi+26h]
  004014F9: 8B 4C 38 20        mov         ecx,dword ptr [eax+edi+20h]
  004014FD: 0F 10 0C 38        movups      xmm1,xmmword ptr [eax+edi]
  00401501: 66 8B 54 38 24     mov         dx,word ptr [eax+edi+24h]
  00401506: 0F 10 54 38 10     movups      xmm2,xmmword ptr [eax+edi+10h]
  0040150B: 8B 5D 08           mov         ebx,dword ptr [ebp+8]
  0040150E: 0F 11 04 38        movups      xmmword ptr [eax+edi],xmm0
  00401512: 0F 10 44 38 36     movups      xmm0,xmmword ptr [eax+edi+36h]
  00401517: 0F 11 44 38 10     movups      xmmword ptr [eax+edi+10h],xmm0
  0040151C: 8B 44 38 46        mov         eax,dword ptr [eax+edi+46h]
  00401520: 89 44 3B 20        mov         dword ptr [ebx+edi+20h],eax
  00401524: 8B C3              mov         eax,ebx
  00401526: 66 8B 44 38 4A     mov         ax,word ptr [eax+edi+4Ah]
  0040152B: 66 89 44 3B 24     mov         word ptr [ebx+edi+24h],ax
  00401530: 8B C3              mov         eax,ebx
  00401532: 8B 5D F8           mov         ebx,dword ptr [ebp-8]
  00401535: 0F 11 4C 38 26     movups      xmmword ptr [eax+edi+26h],xmm1
  0040153A: 0F 11 54 38 36     movups      xmmword ptr [eax+edi+36h],xmm2
  0040153F: 89 4C 38 46        mov         dword ptr [eax+edi+46h],ecx
  00401543: 66 89 54 38 4A     mov         word ptr [eax+edi+4Ah],dx
  00401548: 46                 inc         esi
  00401549: 83 C7 26           add         edi,26h
  0040154C: 3B F3              cmp         esi,ebx
  0040154E: 7C 93              jl          004014E3
  00401550: 8B 4D FC           mov         ecx,dword ptr [ebp-4]
  00401553: 8B 55 0C           mov         edx,dword ptr [ebp+0Ch]
  00401556: 41                 inc         ecx
  00401557: 8D 42 FF           lea         eax,[edx-1]
  0040155A: 89 4D FC           mov         dword ptr [ebp-4],ecx
  0040155D: 3B C8              cmp         ecx,eax
  0040155F: 0F 8C 6B FF FF FF  jl          004014D0
  00401565: 5F                 pop         edi
  00401566: 5E                 pop         esi
  00401567: 5B                 pop         ebx
  00401568: 8B E5              mov         esp,ebp
  0040156A: 5D                 pop         ebp
  0040156B: C3                 ret
  0040156C: CC CC CC CC                                      ....
quicksort_students:
  00401570: 55                 push        ebp
  00401571: 8B EC              mov         ebp,esp
  00401573: 83 EC 10           sub         esp,10h
  00401576: 8B 45 08           mov         eax,dword ptr [ebp+8]
  00401579: 53                 push        ebx
  0040157A: 56                 push        esi
  0040157B: 57                 push        edi
  0040157C: 8B FA              mov         edi,edx
  0040157E: 8B F1              mov         esi,ecx
  00401580: 89 7D F4           mov         dword ptr [ebp-0Ch],edi
  00401583: 89 75 F8           mov         dword ptr [ebp-8],esi
  00401586: 8B C8              mov         ecx,eax
  00401588: 8B DF              mov         ebx,edi
  0040158A: 03 C7              add         eax,edi
  0040158C: 89 4D FC           mov         dword ptr [ebp-4],ecx
  0040158F: 99                 cdq
  00401590: 2B C2              sub         eax,edx
  00401592: D1 F8              sar         eax,1
  00401594: 6B C0 26           imul        eax,eax,26h
  00401597: 0F B7 54 30 24     movzx       edx,word ptr [eax+esi+24h]
  0040159C: 89 55 F0           mov         dword ptr [ebp-10h],edx
  0040159F: 3B 7D 08           cmp         edi,dword ptr [ebp+8]
  004015A2: 0F 8F 9D 00 00 00  jg          00401645
  004015A8: 0F 1F 84 00 00 00  nop         dword ptr [eax+eax]
            00 00
  004015B0: 6B C3 26           imul        eax,ebx,26h
  004015B3: 66 39 54 06 24     cmp         word ptr [esi+eax+24h],dx
  004015B8: 7E 11              jle         004015CB
  004015BA: 66 0F 1F 44 00 00  nop         word ptr [eax+eax]
  004015C0: 8D 40 26           lea         eax,[eax+26h]
  004015C3: 43                 inc         ebx
  004015C4: 66 39 54 30 24     cmp         word ptr [eax+esi+24h],dx
  004015C9: 7F F5              jg          004015C0
  004015CB: 6B C1 26           imul        eax,ecx,26h
  004015CE: 66 39 54 06 24     cmp         word ptr [esi+eax+24h],dx
  004015D3: 7D 0E              jge         004015E3
  004015D5: 8D 40 DA           lea         eax,[eax-26h]
  004015D8: 49                 dec         ecx
  004015D9: 66 39 54 30 24     cmp         word ptr [eax+esi+24h],dx
  004015DE: 7C F5              jl          004015D5
  004015E0: 89 4D FC           mov         dword ptr [ebp-4],ecx
  004015E3: 3B D9              cmp         ebx,ecx
  004015E5: 7F 5B              jg          00401642
  004015E7: 6B C1 26           imul        eax,ecx,26h
  004015EA: 8B 4D F8           mov         ecx,dword ptr [ebp-8]
  004015ED: 03 C8              add         ecx,eax
  004015EF: 6B D3 26           imul        edx,ebx,26h
  004015F2: 03 D6              add         edx,esi
  004015F4: 43                 inc         ebx
  004015F5: 0F 10 01           movups      xmm0,xmmword ptr [ecx]
  004015F8: 8B 72 20           mov         esi,dword ptr [edx+20h]
  004015FB: 0F 10 0A           movups      xmm1,xmmword ptr [edx]
  004015FE: 66 8B 7A 24        mov         di,word ptr [edx+24h]
  00401602: 0F 10 52 10        movups      xmm2,xmmword ptr [edx+10h]
  00401606: 0F 11 02           movups      xmmword ptr [edx],xmm0
  00401609: 0F 10 41 10        movups      xmm0,xmmword ptr [ecx+10h]
  0040160D: 0F 11 42 10        movups      xmmword ptr [edx+10h],xmm0
  00401611: 8B 41 20           mov         eax,dword ptr [ecx+20h]
  00401614: 89 42 20           mov         dword ptr [edx+20h],eax
  00401617: 66 8B 41 24        mov         ax,word ptr [ecx+24h]
  0040161B: 66 89 42 24        mov         word ptr [edx+24h],ax
  0040161F: 8B 55 F0           mov         edx,dword ptr [ebp-10h]
  00401622: 0F 11 09           movups      xmmword ptr [ecx],xmm1
  00401625: 0F 11 51 10        movups      xmmword ptr [ecx+10h],xmm2
  00401629: 89 71 20           mov         dword ptr [ecx+20h],esi
  0040162C: 8B 75 F8           mov         esi,dword ptr [ebp-8]
  0040162F: 66 89 79 24        mov         word ptr [ecx+24h],di
  00401633: 8B 4D FC           mov         ecx,dword ptr [ebp-4]
  00401636: 49                 dec         ecx
  00401637: 89 4D FC           mov         dword ptr [ebp-4],ecx
  0040163A: 3B D9              cmp         ebx,ecx
  0040163C: 0F 8E 6E FF FF FF  jle         004015B0
  00401642: 8B 7D F4           mov         edi,dword ptr [ebp-0Ch]
  00401645: 3B F9              cmp         edi,ecx
  00401647: 7D 0D              jge         00401656
  00401649: 51                 push        ecx
  0040164A: 8B D7              mov         edx,edi
  0040164C: 8B CE              mov         ecx,esi
  0040164E: E8 1D FF FF FF     call        00401570
  00401653: 83 C4 04           add         esp,4
  00401656: 8B 45 08           mov         eax,dword ptr [ebp+8]
  00401659: 3B D8              cmp         ebx,eax
  0040165B: 7D 0A              jge         00401667
  0040165D: 8B FB              mov         edi,ebx
  0040165F: 89 7D F4           mov         dword ptr [ebp-0Ch],edi
  00401662: E9 1F FF FF FF     jmp         00401586
  00401667: 5F                 pop         edi
  00401668: 5E                 pop         esi
  00401669: 5B                 pop         ebx
  0040166A: 8B E5              mov         esp,ebp
  0040166C: 5D                 pop         ebp
  0040166D: C3                 ret
  0040166E: CC CC                                            ..
_sortByAverage_quick:
  00401670: 55                 push        ebp
  00401671: 8B EC              mov         ebp,esp
  00401673: 8B 45 0C           mov         eax,dword ptr [ebp+0Ch]
  00401676: 83 F8 01           cmp         eax,1
  00401679: 7E 0F              jle         0040168A
  0040167B: 8B 4D 08           mov         ecx,dword ptr [ebp+8]
  0040167E: 48                 dec         eax
  0040167F: 50                 push        eax
  00401680: 33 D2              xor         edx,edx
  00401682: E8 E9 FE FF FF     call        00401570
  00401687: 83 C4 04           add         esp,4
  0040168A: 5D                 pop         ebp
  0040168B: C3                 ret
  0040168C: CC CC CC CC                                      ....
checksum_averages:
  00401690: 55                 push        ebp
  00401691: 8B EC              mov         ebp,esp
  00401693: 83 EC 10           sub         esp,10h
  00401696: 53                 push        ebx
  00401697: 56                 push        esi
  00401698: 33 F6              xor         esi,esi
  0040169A: 89 55 F8           mov         dword ptr [ebp-8],edx
  0040169D: 8B D9              mov         ebx,ecx
  0040169F: 89 75 FC           mov         dword ptr [ebp-4],esi
  004016A2: 33 C0              xor         eax,eax
  004016A4: 89 5D F4           mov         dword ptr [ebp-0Ch],ebx
  004016A7: 57                 push        edi
  004016A8: 85 D2              test        edx,edx
  004016AA: 0F 8E 0A 01 00 00  jle         004017BA
  004016B0: 83 FA 08           cmp         edx,8
  004016B3: 0F 82 01 01 00 00  jb          004017BA
  004016B9: 83 3D B4 50 40 00  cmp         dword ptr [___isa_available],2
            02
  004016C0: 0F 8C F4 00 00 00  jl          004017BA
  004016C6: 0F 28 35 00 35 40  movaps      xmm6,xmmword ptr [__xmm@00000004000000030000000200000001]
            00
  004016CD: 8B FA              mov         edi,edx
  004016CF: 83 E7 F8           and         edi,0FFFFFFF8h
  004016D2: 0F 57 ED           xorps       xmm5,xmm5
  004016D5: 33 C9              xor         ecx,ecx
  004016D7: 0F 57 E4           xorps       xmm4,xmm4
  004016DA: 89 4D FC           mov         dword ptr [ebp-4],ecx
  004016DD: 0F 1F 00           nop         dword ptr [eax]
  004016E0: 66 0F 6E C0        movd        xmm0,eax
  004016E4: 8D 70 08           lea         esi,[eax+8]
  004016E7: 66 0F 70 C8 00     pshufd      xmm1,xmm0,0
  004016EC: 8D 50 06           lea         edx,[eax+6]
  004016EF: 0F 57 C0           xorps       xmm0,xmm0
  004016F2: 66 0F 6E D6        movd        xmm2,esi
  004016F6: 66 0F C4 44 19 24  pinsrw      xmm0,word ptr [ecx+ebx+24h],0
            00
  004016FD: 66 0F FE CE        paddd       xmm1,xmm6
  00401701: 66 0F C4 44 19 4A  pinsrw      xmm0,word ptr [ecx+ebx+4Ah],1
            01
  00401708: 66 0F C4 44 19 70  pinsrw      xmm0,word ptr [ecx+ebx+70h],2
            02
  0040170F: 66 0F C4 84 19 96  pinsrw      xmm0,word ptr [ecx+ebx+96h],3
            00 00 00 03
  00401719: 8D 48 07           lea         ecx,[eax+7]
  0040171C: 66 0F 38 23 C0     pmovsxwd    xmm0,xmm0
  00401721: 66 0F 38 40 C1     pmulld      xmm0,xmm1
  00401726: 66 0F FE E8        paddd       xmm5,xmm0
  0040172A: 66 0F 6E CA        movd        xmm1,edx
  0040172E: 83 C0 05           add         eax,5
  00401731: 66 0F 6E C1        movd        xmm0,ecx
  00401735: 8B 4D FC           mov         ecx,dword ptr [ebp-4]
  00401738: 66 0F 62 CA        punpckldq   xmm1,xmm2
  0040173C: 66 0F 6E D8        movd        xmm3,eax
  00401740: 8B C6              mov         eax,esi
  00401742: 66 0F 62 D8        punpckldq   xmm3,xmm0
  00401746: 0F 57 C0           xorps       xmm0,xmm0
  00401749: 66 0F C4 84 19 BC  pinsrw      xmm0,word ptr [ecx+ebx+0BCh],0
            00 00 00 00
  00401753: 66 0F C4 84 19 E2  pinsrw      xmm0,word ptr [ecx+ebx+0E2h],1
            00 00 00 01
  0040175D: 66 0F C4 84 19 08  pinsrw      xmm0,word ptr [ecx+ebx+108h],2
            01 00 00 02
  00401767: 66 0F C4 84 19 2E  pinsrw      xmm0,word ptr [ecx+ebx+12Eh],3
            01 00 00 03
  00401771: 81 C1 30 01 00 00  add         ecx,130h
  00401777: 66 0F 62 D9        punpckldq   xmm3,xmm1
  0040177B: 89 4D FC           mov         dword ptr [ebp-4],ecx
  0040177E: 66 0F 38 23 C0     pmovsxwd    xmm0,xmm0
  00401783: 66 0F 38 40 C3     pmulld      xmm0,xmm3
  00401788: 66 0F FE E0        paddd       xmm4,xmm0
  0040178C: 3B C7              cmp         eax,edi
  0040178E: 0F 8C 4C FF FF FF  jl          004016E0
  00401794: 8B 55 F8           mov         edx,dword ptr [ebp-8]
  00401797: 66 0F FE E5        paddd       xmm4,xmm5
  0040179B: 0F 28 C4           movaps      xmm0,xmm4
  0040179E: 66 0F 73 D8 08     psrldq      xmm0,8
  004017A3: 66 0F FE E0        paddd       xmm4,xmm0
  004017A7: 0F 10 C4           movups      xmm0,xmm4
  004017AA: 66 0F 73 D8 04     psrldq      xmm0,4
  004017AF: 66 0F FE E0        paddd       xmm4,xmm0
  004017B3: 66 0F 7E E6        movd        esi,xmm4
  004017B7: 89 75 FC           mov         dword ptr [ebp-4],esi
  004017BA: 33 FF              xor         edi,edi
  004017BC: 33 DB              xor         ebx,ebx
  004017BE: 3B C2              cmp         eax,edx
  004017C0: 7D 68              jge         0040182A
  004017C2: 8B CA              mov         ecx,edx
  004017C4: 2B C8              sub         ecx,eax
  004017C6: 83 F9 02           cmp         ecx,2
  004017C9: 7C 30              jl          004017FB
  004017CB: 8D 4A FF           lea         ecx,[edx-1]
  004017CE: 89 4D F0           mov         dword ptr [ebp-10h],ecx
  004017D1: 6B F0 26           imul        esi,eax,26h
  004017D4: 8D 48 01           lea         ecx,[eax+1]
  004017D7: 83 C0 02           add         eax,2
  004017DA: 03 75 F4           add         esi,dword ptr [ebp-0Ch]
  004017DD: 0F BF 56 24        movsx       edx,word ptr [esi+24h]
  004017E1: 0F AF D1           imul        edx,ecx
  004017E4: 0F BF 4E 4A        movsx       ecx,word ptr [esi+4Ah]
  004017E8: 0F AF C8           imul        ecx,eax
  004017EB: 03 FA              add         edi,edx
  004017ED: 03 D9              add         ebx,ecx
  004017EF: 8B C8              mov         ecx,eax
  004017F1: 3B 45 F0           cmp         eax,dword ptr [ebp-10h]
  004017F4: 7C DB              jl          004017D1
  004017F6: 3B 4D F8           cmp         ecx,dword ptr [ebp-8]
  004017F9: 7D 20              jge         0040181B
  004017FB: 8B 55 F4           mov         edx,dword ptr [ebp-0Ch]
  004017FE: 6B C8 26           imul        ecx,eax,26h
  00401801: 40                 inc         eax
  00401802: 0F BF 4C 11 24     movsx       ecx,word ptr [ecx+edx+24h]
  00401807: 0F AF C8           imul        ecx,eax
  0040180A: 8B 45 FC           mov         eax,dword ptr [ebp-4]
  0040180D: 03 C1              add         eax,ecx
  0040180F: 8D 0C 3B           lea         ecx,[ebx+edi]
  00401812: 5F                 pop         edi
  00401813: 5E                 pop         esi
  00401814: 03 C1              add         eax,ecx
  00401816: 5B                 pop         ebx
  00401817: 8B E5              mov         esp,ebp
  00401819: 5D                 pop         ebp
  0040181A: C3                 ret
  0040181B: 8B 45 FC           mov         eax,dword ptr [ebp-4]
  0040181E: 8D 0C 3B           lea         ecx,[ebx+edi]
  00401821: 5F                 pop         edi
  00401822: 5E                 pop         esi
  00401823: 03 C1              add         eax,ecx
  00401825: 5B                 pop         ebx
  00401826: 8B E5              mov         esp,ebp
  00401828: 5D                 pop         ebp
  00401829: C3                 ret
  0040182A: 5F                 pop         edi
  0040182B: 8B C6              mov         eax,esi
  0040182D: 5E                 pop         esi
  0040182E: 5B                 pop         ebx
  0040182F: 8B E5              mov         esp,ebp
  00401831: 5D                 pop         ebp
  00401832: C3                 ret
  00401833: CC CC CC CC CC CC CC CC CC CC CC CC CC           .............
verify_average_function:
  00401840: 55                 push        ebp
  00401841: 8B EC              mov         ebp,esp
  00401843: 81 EC 0C 03 00 00  sub         esp,30Ch
  00401849: A1 00 50 40 00     mov         eax,dword ptr [___security_cookie]
  0040184E: 33 C5              xor         eax,ebp
  00401850: 89 45 FC           mov         dword ptr [ebp-4],eax
  00401853: 53                 push        ebx
  00401854: 56                 push        esi
  00401855: 8B DA              mov         ebx,edx
  00401857: 89 8D F4 FC FF FF  mov         dword ptr [ebp-30Ch],ecx
  0040185D: 57                 push        edi
  0040185E: BA 0A 00 00 00     mov         edx,0Ah
  00401863: 8D 8D 78 FE FF FF  lea         ecx,[ebp-188h]
  00401869: E8 22 F8 FF FF     call        00401090
  0040186E: 8D 85 78 FE FF FF  lea         eax,[ebp-188h]
  00401874: B9 5F 00 00 00     mov         ecx,5Fh
  00401879: 8D B5 78 FE FF FF  lea         esi,[ebp-188h]
  0040187F: 8D BD F8 FC FF FF  lea         edi,[ebp-308h]
  00401885: 6A 0A              push        0Ah
  00401887: F3 A5              rep movs    dword ptr es:[edi],dword ptr [esi]
  00401889: 50                 push        eax
  0040188A: E8 A1 FB FF FF     call        _computeAverageScore_c
  0040188F: 8D 85 F8 FC FF FF  lea         eax,[ebp-308h]
  00401895: 6A 0A              push        0Ah
  00401897: 50                 push        eax
  00401898: FF D3              call        ebx
  0040189A: 83 C4 10           add         esp,10h
  0040189D: 33 C0              xor         eax,eax
  0040189F: 90                 nop
  004018A0: 6B C8 26           imul        ecx,eax,26h
  004018A3: 0F B7 B4 0D 1C FD  movzx       esi,word ptr [ebp+ecx-2E4h]
            FF FF
  004018AB: 0F B7 BC 0D 9C FE  movzx       edi,word ptr [ebp+ecx-164h]
            FF FF
  004018B3: 66 3B FE           cmp         di,si
  004018B6: 75 40              jne         004018F8
  004018B8: 40                 inc         eax
  004018B9: 83 F8 0A           cmp         eax,0Ah
  004018BC: 7C E2              jl          004018A0
  004018BE: BA 0A 00 00 00     mov         edx,0Ah
  004018C3: 8D 8D F8 FC FF FF  lea         ecx,[ebp-308h]
  004018C9: E8 C2 FD FF FF     call        00401690
  004018CE: 50                 push        eax
  004018CF: FF B5 F4 FC FF FF  push        dword ptr [ebp-30Ch]
  004018D5: 68 20 32 40 00     push        offset ??_C@_0CH@HCDCCCJB@VERIFY?5average?5?$CF?924s?5PASS?5check@
  004018DA: E8 31 F7 FF FF     call        _printf
  004018DF: 83 C4 0C           add         esp,0Ch
  004018E2: B8 01 00 00 00     mov         eax,1
  004018E7: 5F                 pop         edi
  004018E8: 5E                 pop         esi
  004018E9: 5B                 pop         ebx
  004018EA: 8B 4D FC           mov         ecx,dword ptr [ebp-4]
  004018ED: 33 CD              xor         ecx,ebp
  004018EF: E8 44 05 00 00     call        @__security_check_cookie@4
  004018F4: 8B E5              mov         esp,ebp
  004018F6: 5D                 pop         ebp
  004018F7: C3                 ret
  004018F8: 0F BF CE           movsx       ecx,si
  004018FB: 51                 push        ecx
  004018FC: 0F BF CF           movsx       ecx,di
  004018FF: 51                 push        ecx
  00401900: 50                 push        eax
  00401901: FF B5 F4 FC FF FF  push        dword ptr [ebp-30Ch]
  00401907: 68 E4 31 40 00     push        offset ??_C@_0DM@GPLPPJKI@VERIFY?5average?5?$CF?924s?5MISMATCH?5a@
  0040190C: E8 FF F6 FF FF     call        _printf
  00401911: 8B 4D FC           mov         ecx,dword ptr [ebp-4]
  00401914: 83 C4 14           add         esp,14h
  00401917: 33 CD              xor         ecx,ebp
  00401919: 33 C0              xor         eax,eax
  0040191B: 5F                 pop         edi
  0040191C: 5E                 pop         esi
  0040191D: 5B                 pop         ebx
  0040191E: E8 15 05 00 00     call        @__security_check_cookie@4
  00401923: 8B E5              mov         esp,ebp
  00401925: 5D                 pop         ebp
  00401926: C3                 ret
  00401927: CC CC CC CC CC CC CC CC CC                       .........
measure_average:
  00401930: 55                 push        ebp
  00401931: 8B EC              mov         ebp,esp
  00401933: 83 EC 38           sub         esp,38h
  00401936: A1 00 50 40 00     mov         eax,dword ptr [___security_cookie]
  0040193B: 33 C5              xor         eax,ebp
  0040193D: 89 45 F8           mov         dword ptr [ebp-8],eax
  00401940: 53                 push        ebx
  00401941: 56                 push        esi
  00401942: 57                 push        edi
  00401943: 8B 7D 08           mov         edi,dword ptr [ebp+8]
  00401946: 8D 45 DC           lea         eax,[ebp-24h]
  00401949: 50                 push        eax
  0040194A: 8B DA              mov         ebx,edx
  0040194C: 89 4D D8           mov         dword ptr [ebp-28h],ecx
  0040194F: FF 15 00 30 40 00  call        dword ptr [__imp__QueryPerformanceFrequency@4]
  00401955: 8D 45 E4           lea         eax,[ebp-1Ch]
  00401958: 50                 push        eax
  00401959: FF 15 04 30 40 00  call        dword ptr [__imp__QueryPerformanceCounter@4]
  0040195F: BE 20 4E 00 00     mov         esi,4E20h
  00401964: 68 00 01 00 00     push        100h
  00401969: 57                 push        edi
  0040196A: FF D3              call        ebx
  0040196C: 83 C4 08           add         esp,8
  0040196F: 83 EE 01           sub         esi,1
  00401972: 75 F0              jne         00401964
  00401974: 8D 45 EC           lea         eax,[ebp-14h]
  00401977: 50                 push        eax
  00401978: FF 15 04 30 40 00  call        dword ptr [__imp__QueryPerformanceCounter@4]
  0040197E: BA 00 01 00 00     mov         edx,100h
  00401983: 8B CF              mov         ecx,edi
  00401985: E8 06 FD FF FF     call        00401690
  0040198A: 8B 4D EC           mov         ecx,dword ptr [ebp-14h]
  0040198D: 8B F0              mov         esi,eax
  0040198F: 2B 4D E4           sub         ecx,dword ptr [ebp-1Ch]
  00401992: 8B 55 F0           mov         edx,dword ptr [ebp-10h]
  00401995: 1B 55 E8           sbb         edx,dword ptr [ebp-18h]
  00401998: E8 73 10 00 00     call        __ltod3
  0040199D: F2 0F 59 05 F0 34  mulsd       xmm0,mmword ptr [__real@408f400000000000]
            40 00
  004019A5: 8B 55 E0           mov         edx,dword ptr [ebp-20h]
  004019A8: 8B 4D DC           mov         ecx,dword ptr [ebp-24h]
  004019AB: F2 0F 11 45 CC     movsd       mmword ptr [ebp-34h],xmm0
  004019B0: E8 5B 10 00 00     call        __ltod3
  004019B5: F2 0F 10 4D CC     movsd       xmm1,mmword ptr [ebp-34h]
  004019BA: F2 0F 5E C8        divsd       xmm1,xmm0
  004019BE: 56                 push        esi
  004019BF: 83 EC 08           sub         esp,8
  004019C2: F2 0F 11 0C 24     movsd       mmword ptr [esp],xmm1
  004019C7: 68 20 4E 00 00     push        4E20h
  004019CC: 68 00 01 00 00     push        100h
  004019D1: FF 75 D8           push        dword ptr [ebp-28h]
  004019D4: F2 0F 11 4D CC     movsd       mmword ptr [ebp-34h],xmm1
  004019D9: 68 48 32 40 00     push        offset ??_C@_0DH@NEPFPBD@TIME?5average?5?$CF?924s?5n?$DN?$CFd?5repeat?$DN@
  004019DE: E8 2D F6 FF FF     call        _printf
  004019E3: 8B 4D F8           mov         ecx,dword ptr [ebp-8]
  004019E6: 83 C4 1C           add         esp,1Ch
  004019E9: F2 0F 10 45 CC     movsd       xmm0,mmword ptr [ebp-34h]
  004019EE: 33 CD              xor         ecx,ebp
  004019F0: 5F                 pop         edi
  004019F1: 5E                 pop         esi
  004019F2: 5B                 pop         ebx
  004019F3: E8 40 04 00 00     call        @__security_check_cookie@4
  004019F8: 8B E5              mov         esp,ebp
  004019FA: 5D                 pop         ebp
  004019FB: C3                 ret
  004019FC: CC CC CC CC                                      ....
measure_sort:
  00401A00: 55                 push        ebp
  00401A01: 8B EC              mov         ebp,esp
  00401A03: 83 EC 44           sub         esp,44h
  00401A06: A1 00 50 40 00     mov         eax,dword ptr [___security_cookie]
  00401A0B: 33 C5              xor         eax,ebp
  00401A0D: 89 45 FC           mov         dword ptr [ebp-4],eax
  00401A10: 8B 45 08           mov         eax,dword ptr [ebp+8]
  00401A13: 0F 57 C0           xorps       xmm0,xmm0
  00401A16: 53                 push        ebx
  00401A17: 56                 push        esi
  00401A18: 8B 75 0C           mov         esi,dword ptr [ebp+0Ch]
  00401A1B: 89 45 D4           mov         dword ptr [ebp-2Ch],eax
  00401A1E: 8D 45 E0           lea         eax,[ebp-20h]
  00401A21: 57                 push        edi
  00401A22: 50                 push        eax
  00401A23: 89 55 DC           mov         dword ptr [ebp-24h],edx
  00401A26: 89 4D CC           mov         dword ptr [ebp-34h],ecx
  00401A29: 66 0F 13 45 C0     movlpd      qword ptr [ebp-40h],xmm0
  00401A2E: FF 15 00 30 40 00  call        dword ptr [__imp__QueryPerformanceFrequency@4]
  00401A34: 8B 7D C4           mov         edi,dword ptr [ebp-3Ch]
  00401A37: 8B 5D C0           mov         ebx,dword ptr [ebp-40h]
  00401A3A: C7 45 D8 C8 00 00  mov         dword ptr [ebp-28h],0C8h
            00
  00401A41: 68 00 26 00 00     push        2600h
  00401A46: FF 75 D4           push        dword ptr [ebp-2Ch]
  00401A49: 56                 push        esi
  00401A4A: E8 03 10 00 00     call        _memcpy
  00401A4F: 83 C4 0C           add         esp,0Ch
  00401A52: 8D 45 E8           lea         eax,[ebp-18h]
  00401A55: 50                 push        eax
  00401A56: FF 15 04 30 40 00  call        dword ptr [__imp__QueryPerformanceCounter@4]
  00401A5C: 68 00 01 00 00     push        100h
  00401A61: 56                 push        esi
  00401A62: FF 55 DC           call        dword ptr [ebp-24h]
  00401A65: 83 C4 08           add         esp,8
  00401A68: 8D 45 F0           lea         eax,[ebp-10h]
  00401A6B: 50                 push        eax
  00401A6C: FF 15 04 30 40 00  call        dword ptr [__imp__QueryPerformanceCounter@4]
  00401A72: 8B 4D F0           mov         ecx,dword ptr [ebp-10h]
  00401A75: 2B 4D E8           sub         ecx,dword ptr [ebp-18h]
  00401A78: 8B 45 F4           mov         eax,dword ptr [ebp-0Ch]
  00401A7B: 1B 45 EC           sbb         eax,dword ptr [ebp-14h]
  00401A7E: 03 D9              add         ebx,ecx
  00401A80: 13 F8              adc         edi,eax
  00401A82: 83 6D D8 01        sub         dword ptr [ebp-28h],1
  00401A86: 75 B9              jne         00401A41
  00401A88: BA 00 01 00 00     mov         edx,100h
  00401A8D: 8B CE              mov         ecx,esi
  00401A8F: E8 FC FB FF FF     call        00401690
  00401A94: 8B D7              mov         edx,edi
  00401A96: 89 45 DC           mov         dword ptr [ebp-24h],eax
  00401A99: 8B CB              mov         ecx,ebx
  00401A9B: E8 70 0F 00 00     call        __ltod3
  00401AA0: F2 0F 59 05 F0 34  mulsd       xmm0,mmword ptr [__real@408f400000000000]
            40 00
  00401AA8: 8B 55 E4           mov         edx,dword ptr [ebp-1Ch]
  00401AAB: 8B 4D E0           mov         ecx,dword ptr [ebp-20h]
  00401AAE: F2 0F 11 45 D0     movsd       mmword ptr [ebp-30h],xmm0
  00401AB3: E8 58 0F 00 00     call        __ltod3
  00401AB8: F2 0F 10 4D D0     movsd       xmm1,mmword ptr [ebp-30h]
  00401ABD: BA 01 00 00 00     mov         edx,1
  00401AC2: F2 0F 5E C8        divsd       xmm1,xmm0
  00401AC6: F2 0F 11 4D D0     movsd       mmword ptr [ebp-30h],xmm1
  00401ACB: 0F 1F 44 00 00     nop         dword ptr [eax+eax]
  00401AD0: 6B CA 26           imul        ecx,edx,26h
  00401AD3: 66 8B 44 31 FE     mov         ax,word ptr [ecx+esi-2]
  00401AD8: 66 3B 44 31 24     cmp         ax,word ptr [ecx+esi+24h]
  00401ADD: 7C 10              jl          00401AEF
  00401ADF: 42                 inc         edx
  00401AE0: 81 FA 00 01 00 00  cmp         edx,100h
  00401AE6: 7C E8              jl          00401AD0
  00401AE8: B9 01 00 00 00     mov         ecx,1
  00401AED: EB 02              jmp         00401AF1
  00401AEF: 33 C9              xor         ecx,ecx
  00401AF1: 85 C9              test        ecx,ecx
  00401AF3: BA 88 32 40 00     mov         edx,offset ??_C@_08MKICCDMH@MISMATCH@
  00401AF8: B8 80 32 40 00     mov         eax,offset ??_C@_04NNAKGGAP@PASS@
  00401AFD: 0F 44 C2           cmove       eax,edx
  00401B00: 50                 push        eax
  00401B01: FF 75 DC           push        dword ptr [ebp-24h]
  00401B04: 83 EC 08           sub         esp,8
  00401B07: F2 0F 11 0C 24     movsd       mmword ptr [esp],xmm1
  00401B0C: 68 C8 00 00 00     push        0C8h
  00401B11: 68 00 01 00 00     push        100h
  00401B16: FF 75 CC           push        dword ptr [ebp-34h]
  00401B19: 68 98 32 40 00     push        offset ??_C@_0EB@KMGPDII@TIME?5sort?5?5?5?5?$CF?924s?5n?$DN?$CFd?5repeat?$DN@
  00401B1E: E8 ED F4 FF FF     call        _printf
  00401B23: 8B 4D FC           mov         ecx,dword ptr [ebp-4]
  00401B26: 83 C4 20           add         esp,20h
  00401B29: F2 0F 10 45 D0     movsd       xmm0,mmword ptr [ebp-30h]
  00401B2E: 33 CD              xor         ecx,ebp
  00401B30: 5F                 pop         edi
  00401B31: 5E                 pop         esi
  00401B32: 5B                 pop         ebx
  00401B33: E8 00 03 00 00     call        @__security_check_cookie@4
  00401B38: 8B E5              mov         esp,ebp
  00401B3A: 5D                 pop         ebp
  00401B3B: C3                 ret
  00401B3C: CC CC CC CC                                      ....
_main:
  00401B40: 55                 push        ebp
  00401B41: 8B EC              mov         ebp,esp
  00401B43: 83 E4 C0           and         esp,0FFFFFFC0h
  00401B46: B8 38 4F 00 00     mov         eax,4F38h
  00401B4B: E8 90 0E 00 00     call        __alloca_probe
  00401B50: A1 00 50 40 00     mov         eax,dword ptr [___security_cookie]
  00401B55: 33 C4              xor         eax,esp
  00401B57: 89 84 24 34 4F 00  mov         dword ptr [esp+4F34h],eax
            00
  00401B5E: 56                 push        esi
  00401B5F: 57                 push        edi
  00401B60: 68 DC 32 40 00     push        offset ??_C@_0DA@NGDLLIOJ@LAB02?5ASM?1C?5mixed?5programming?5a@
  00401B65: E8 A6 F4 FF FF     call        _printf
  00401B6A: 83 C4 04           add         esp,4
  00401B6D: 6A 24              push        24h
  00401B6F: 6A 14              push        14h
  00401B71: 6A 26              push        26h
  00401B73: 68 0C 33 40 00     push        offset ??_C@_0DL@CCGGJOHL@struct?5student?5size?$DN?$CFu?5offset?5s@
  00401B78: E8 93 F4 FF FF     call        _printf
  00401B7D: 68 48 33 40 00     push        offset ??_C@_0FH@ELEENJIK@student?$FL0?$FN?5name?5is?5stored?5as?5GB@
  00401B82: E8 89 F4 FF FF     call        _printf
  00401B87: 83 C4 14           add         esp,14h
  00401B8A: 8D 4C 24 38        lea         ecx,[esp+38h]
  00401B8E: BA 0A 00 00 00     mov         edx,0Ah
  00401B93: E8 F8 F4 FF FF     call        00401090
  00401B98: 51                 push        ecx
  00401B99: 8D 54 24 3C        lea         edx,[esp+3Ch]
  00401B9D: B9 A0 33 40 00     mov         ecx,offset ??_C@_0BL@LBAHADO@Before?5average?5and?5sorting@
  00401BA2: E8 99 F7 FF FF     call        00401340
  00401BA7: 83 C4 04           add         esp,4
  00401BAA: 8D 44 24 38        lea         eax,[esp+38h]
  00401BAE: 6A 0A              push        0Ah
  00401BB0: 50                 push        eax
  00401BB1: E8 7A F8 FF FF     call        _computeAverageScore_c
  00401BB6: 8D 84 24 C0 01 00  lea         eax,[esp+1C0h]
            00
  00401BBD: B9 5F 00 00 00     mov         ecx,5Fh
  00401BC2: 8D 74 24 40        lea         esi,[esp+40h]
  00401BC6: 8D BC 24 C0 01 00  lea         edi,[esp+1C0h]
            00
  00401BCD: 6A 0A              push        0Ah
  00401BCF: F3 A5              rep movs    dword ptr es:[edi],dword ptr [esi]
  00401BD1: 50                 push        eax
  00401BD2: E8 D9 F8 FF FF     call        _sortByAverage_bubble
  00401BD7: 83 C4 0C           add         esp,0Ch
  00401BDA: 8D 94 24 BC 01 00  lea         edx,[esp+1BCh]
            00
  00401BE1: B9 BC 33 40 00     mov         ecx,offset ??_C@_0CD@DFDPMCIF@After?5C?5average?5and?5bubble?5sort@
  00401BE6: E8 55 F7 FF FF     call        00401340
  00401BEB: 83 C4 04           add         esp,4
  00401BEE: BA 90 1D 40 00     mov         edx,offset _computeAverageScore_asm
  00401BF3: B9 E0 33 40 00     mov         ecx,offset ??_C@_0N@CCLGCIMC@ASM?5baseline@
  00401BF8: E8 43 FC FF FF     call        00401840
  00401BFD: BA E8 1D 40 00     mov         edx,offset _computeAverageScore_asm_opt
  00401C02: B9 F0 33 40 00     mov         ecx,offset ??_C@_0O@ODNOBGJF@ASM?5optimized@
  00401C07: E8 34 FC FF FF     call        00401840
  00401C0C: BA 00 01 00 00     mov         edx,100h
  00401C11: 8D 8C 24 38 03 00  lea         ecx,[esp+338h]
            00
  00401C18: E8 73 F4 FF FF     call        00401090
  00401C1D: 83 EC 08           sub         esp,8
  00401C20: 8D 84 24 40 03 00  lea         eax,[esp+340h]
            00
  00401C27: BA 30 14 40 00     mov         edx,offset _computeAverageScore_c
  00401C2C: B9 00 34 40 00     mov         ecx,offset ??_C@_0L@DPMNDEHI@C?5baseline@
  00401C31: 50                 push        eax
  00401C32: E8 F9 FC FF FF     call        00401930
  00401C37: 83 C4 0C           add         esp,0Ch
  00401C3A: F2 0F 11 44 24 20  movsd       mmword ptr [esp+20h],xmm0
  00401C40: BA 00 01 00 00     mov         edx,100h
  00401C45: 8D 8C 24 38 03 00  lea         ecx,[esp+338h]
            00
  00401C4C: E8 3F F4 FF FF     call        00401090
  00401C51: 83 EC 08           sub         esp,8
  00401C54: 8D 84 24 40 03 00  lea         eax,[esp+340h]
            00
  00401C5B: BA 90 1D 40 00     mov         edx,offset _computeAverageScore_asm
  00401C60: B9 0C 34 40 00     mov         ecx,offset ??_C@_0BC@IJJLKGGJ@ASM?5baseline?5idiv@
  00401C65: 50                 push        eax
  00401C66: E8 C5 FC FF FF     call        00401930
  00401C6B: 83 C4 0C           add         esp,0Ch
  00401C6E: F2 0F 11 44 24 18  movsd       mmword ptr [esp+18h],xmm0
  00401C74: BA 00 01 00 00     mov         edx,100h
  00401C79: 8D 8C 24 38 03 00  lea         ecx,[esp+338h]
            00
  00401C80: E8 0B F4 FF FF     call        00401090
  00401C85: 83 EC 08           sub         esp,8
  00401C88: 8D 84 24 40 03 00  lea         eax,[esp+340h]
            00
  00401C8F: BA E8 1D 40 00     mov         edx,offset _computeAverageScore_asm_opt
  00401C94: B9 20 34 40 00     mov         ecx,offset ??_C@_0BE@GFEKIMBH@ASM?5optimized?5shift@
  00401C99: 50                 push        eax
  00401C9A: E8 91 FC FF FF     call        00401930
  00401C9F: 83 C4 0C           add         esp,0Ch
  00401CA2: F2 0F 11 44 24 10  movsd       mmword ptr [esp+10h],xmm0
  00401CA8: BA 00 01 00 00     mov         edx,100h
  00401CAD: 8D 8C 24 38 03 00  lea         ecx,[esp+338h]
            00
  00401CB4: E8 D7 F3 FF FF     call        00401090
  00401CB9: 68 00 01 00 00     push        100h
  00401CBE: 8D 84 24 3C 03 00  lea         eax,[esp+33Ch]
            00
  00401CC5: 50                 push        eax
  00401CC6: E8 65 F7 FF FF     call        _computeAverageScore_c
  00401CCB: 8D 84 24 40 29 00  lea         eax,[esp+2940h]
            00
  00401CD2: BA B0 14 40 00     mov         edx,offset _sortByAverage_bubble
  00401CD7: 50                 push        eax
  00401CD8: 8D 84 24 44 03 00  lea         eax,[esp+344h]
            00
  00401CDF: B9 34 34 40 00     mov         ecx,offset ??_C@_0BC@IGKOFJGO@C?5bubble?5baseline@
  00401CE4: 50                 push        eax
  00401CE5: E8 16 FD FF FF     call        00401A00
  00401CEA: 83 C4 08           add         esp,8
  00401CED: F2 0F 11 44 24 38  movsd       mmword ptr [esp+38h],xmm0
  00401CF3: 8D 84 24 40 29 00  lea         eax,[esp+2940h]
            00
  00401CFA: BA 70 16 40 00     mov         edx,offset _sortByAverage_quick
  00401CFF: B9 48 34 40 00     mov         ecx,offset ??_C@_0BG@LIMIEAHK@C?5quicksort?5optimized@
  00401D04: 50                 push        eax
  00401D05: 8D 84 24 44 03 00  lea         eax,[esp+344h]
            00
  00401D0C: 50                 push        eax
  00401D0D: E8 EE FC FF FF     call        00401A00
  00401D12: F2 0F 11 44 24 38  movsd       mmword ptr [esp+38h],xmm0
  00401D18: F2 0F 10 44 24 20  movsd       xmm0,mmword ptr [esp+20h]
  00401D1E: F2 0F 11 44 24 08  movsd       mmword ptr [esp+8],xmm0
  00401D24: F2 0F 10 44 24 28  movsd       xmm0,mmword ptr [esp+28h]
  00401D2A: F2 0F 11 04 24     movsd       mmword ptr [esp],xmm0
  00401D2F: 83 EC 08           sub         esp,8
  00401D32: F2 0F 10 44 24 38  movsd       xmm0,mmword ptr [esp+38h]
  00401D38: F2 0F 11 04 24     movsd       mmword ptr [esp],xmm0
  00401D3D: 68 60 34 40 00     push        offset ??_C@_0DB@LBDLMNNG@SUMMARY?5average_ms?5C?$DN?$CF?43f?5ASM?$DN?$CF@
  00401D42: E8 C9 F2 FF FF     call        _printf
  00401D47: F2 0F 10 44 24 44  movsd       xmm0,mmword ptr [esp+44h]
  00401D4D: 83 C4 0C           add         esp,0Ch
  00401D50: F2 0F 11 44 24 08  movsd       mmword ptr [esp+8],xmm0
  00401D56: F2 0F 10 44 24 40  movsd       xmm0,mmword ptr [esp+40h]
  00401D5C: F2 0F 11 04 24     movsd       mmword ptr [esp],xmm0
  00401D61: 68 94 34 40 00     push        offset ??_C@_0CM@NGNMJLFI@SUMMARY?5sort_ms?5bubble?$DN?$CF?43f?5qui@
  00401D66: E8 A5 F2 FF FF     call        _printf
  00401D6B: 8B 8C 24 50 4F 00  mov         ecx,dword ptr [esp+4F50h]
            00
  00401D72: 83 C4 14           add         esp,14h
  00401D75: 33 C0              xor         eax,eax
  00401D77: 5F                 pop         edi
  00401D78: 5E                 pop         esi
  00401D79: 33 CC              xor         ecx,esp
  00401D7B: E8 B8 00 00 00     call        @__security_check_cookie@4
  00401D80: 8B E5              mov         esp,ebp
  00401D82: 5D                 pop         ebp
  00401D83: C3                 ret
  00401D84: CC CC CC CC CC CC CC CC CC CC CC CC              ............
_computeAverageScore_asm:
  00401D90: 55                 push        ebp
  00401D91: 8B EC              mov         ebp,esp
  00401D93: 56                 push        esi
  00401D94: 53                 push        ebx
  00401D95: 8B 75 08           mov         esi,dword ptr [ebp+8]
  00401D98: 8B 4D 0C           mov         ecx,dword ptr [ebp+0Ch]
  00401D9B: 85 C9              test        ecx,ecx
  00401D9D: 7E 45              jle         00401DE4
  00401D9F: 51                 push        ecx
  00401DA0: 33 C0              xor         eax,eax
  00401DA2: 0F BF 56 14        movsx       edx,word ptr [esi+14h]
  00401DA6: 03 C2              add         eax,edx
  00401DA8: 0F BF 56 16        movsx       edx,word ptr [esi+16h]
  00401DAC: 03 C2              add         eax,edx
  00401DAE: 0F BF 56 18        movsx       edx,word ptr [esi+18h]
  00401DB2: 03 C2              add         eax,edx
  00401DB4: 0F BF 56 1A        movsx       edx,word ptr [esi+1Ah]
  00401DB8: 03 C2              add         eax,edx
  00401DBA: 0F BF 56 1C        movsx       edx,word ptr [esi+1Ch]
  00401DBE: 03 C2              add         eax,edx
  00401DC0: 0F BF 56 1E        movsx       edx,word ptr [esi+1Eh]
  00401DC4: 03 C2              add         eax,edx
  00401DC6: 0F BF 56 20        movsx       edx,word ptr [esi+20h]
  00401DCA: 03 C2              add         eax,edx
  00401DCC: 0F BF 56 22        movsx       edx,word ptr [esi+22h]
  00401DD0: 03 C2              add         eax,edx
  00401DD2: BB 08 00 00 00     mov         ebx,8
  00401DD7: 99                 cdq
  00401DD8: F7 FB              idiv        eax,ebx
  00401DDA: 66 89 46 24        mov         word ptr [esi+24h],ax
  00401DDE: 83 C6 26           add         esi,26h
  00401DE1: 59                 pop         ecx
  00401DE2: E2 BB              loop        00401D9F
  00401DE4: 5B                 pop         ebx
  00401DE5: 5E                 pop         esi
  00401DE6: C9                 leave
  00401DE7: C3                 ret
_computeAverageScore_asm_opt:
  00401DE8: 55                 push        ebp
  00401DE9: 8B EC              mov         ebp,esp
  00401DEB: 56                 push        esi
  00401DEC: 8B 75 08           mov         esi,dword ptr [ebp+8]
  00401DEF: 8B 4D 0C           mov         ecx,dword ptr [ebp+0Ch]
  00401DF2: 85 C9              test        ecx,ecx
  00401DF4: 7E 3F              jle         00401E35
  00401DF6: 33 C0              xor         eax,eax
  00401DF8: 0F BF 56 14        movsx       edx,word ptr [esi+14h]
  00401DFC: 03 C2              add         eax,edx
  00401DFE: 0F BF 56 16        movsx       edx,word ptr [esi+16h]
  00401E02: 03 C2              add         eax,edx
  00401E04: 0F BF 56 18        movsx       edx,word ptr [esi+18h]
  00401E08: 03 C2              add         eax,edx
  00401E0A: 0F BF 56 1A        movsx       edx,word ptr [esi+1Ah]
  00401E0E: 03 C2              add         eax,edx
  00401E10: 0F BF 56 1C        movsx       edx,word ptr [esi+1Ch]
  00401E14: 03 C2              add         eax,edx
  00401E16: 0F BF 56 1E        movsx       edx,word ptr [esi+1Eh]
  00401E1A: 03 C2              add         eax,edx
  00401E1C: 0F BF 56 20        movsx       edx,word ptr [esi+20h]
  00401E20: 03 C2              add         eax,edx
  00401E22: 0F BF 56 22        movsx       edx,word ptr [esi+22h]
  00401E26: 03 C2              add         eax,edx
  00401E28: C1 F8 03           sar         eax,3
  00401E2B: 66 89 46 24        mov         word ptr [esi+24h],ax
  00401E2F: 83 C6 26           add         esi,26h
  00401E32: 49                 dec         ecx
  00401E33: 75 C1              jne         00401DF6
  00401E35: 5E                 pop         esi
  00401E36: C9                 leave
  00401E37: C3                 ret
@__security_check_cookie@4:
  00401E38: 3B 0D 00 50 40 00  cmp         ecx,dword ptr [___security_cookie]
  00401E3E: 75 01              jne         00401E41
  00401E40: C3                 ret
  00401E41: E9 54 02 00 00     jmp         ___report_gsfailure
pre_c_initialization:
  00401E46: 56                 push        esi
  00401E47: 6A 01              push        1
  00401E49: E8 84 0A 00 00     call        __set_app_type
  00401E4E: E8 3F 05 00 00     call        __get_startup_file_mode
  00401E53: 50                 push        eax
  00401E54: E8 AF 0A 00 00     call        __set_fmode
  00401E59: E8 2D 05 00 00     call        ___scrt_exe_initialize_mta
  00401E5E: 8B F0              mov         esi,eax
  00401E60: E8 D3 0A 00 00     call        ___p__commode
  00401E65: 6A 01              push        1
  00401E67: 89 30              mov         dword ptr [eax],esi
  00401E69: E8 DF 02 00 00     call        ___scrt_initialize_onexit_tables
  00401E6E: 83 C4 0C           add         esp,0Ch
  00401E71: 5E                 pop         esi
  00401E72: 84 C0              test        al,al
  00401E74: 74 73              je          00401EE9
  00401E76: DB E2              fnclex
  00401E78: E8 3C 06 00 00     call        __RTC_Initialize
  00401E7D: 68 E5 24 40 00     push        offset __RTC_Terminate
  00401E82: E8 57 04 00 00     call        _atexit
  00401E87: E8 02 05 00 00     call        __get_startup_argv_mode
  00401E8C: 50                 push        eax
  00401E8D: E8 4C 0A 00 00     call        __configure_narrow_argv
  00401E92: 59                 pop         ecx
  00401E93: 59                 pop         ecx
  00401E94: 85 C0              test        eax,eax
  00401E96: 75 51              jne         00401EE9
  00401E98: E8 FB 04 00 00     call        ?__scrt_initialize_type_info@@YAXXZ
  00401E9D: E8 4C 05 00 00     call        ___scrt_is_user_matherr_present
  00401EA2: 85 C0              test        eax,eax
  00401EA4: 74 0B              je          00401EB1
  00401EA6: 68 8B 23 40 00     push        offset ___scrt_exe_initialize_mta
  00401EAB: E8 28 0A 00 00     call        ___setusermatherr
  00401EB0: 59                 pop         ecx
  00401EB1: E8 12 05 00 00     call        @_guard_check_icall_nop@4
  00401EB6: E8 0D 05 00 00     call        @_guard_check_icall_nop@4
  00401EBB: E8 E7 04 00 00     call        __initialize_default_precision
  00401EC0: E8 C6 04 00 00     call        ___scrt_exe_initialize_mta
  00401EC5: 50                 push        eax
  00401EC6: E8 61 0A 00 00     call        __configthreadlocale
  00401ECB: 59                 pop         ecx
  00401ECC: E8 D3 04 00 00     call        ___acrt_initialize
  00401ED1: 84 C0              test        al,al
  00401ED3: 74 05              je          00401EDA
  00401ED5: E8 0A 0A 00 00     call        __initialize_narrow_environment
  00401EDA: E8 AC 04 00 00     call        ___scrt_exe_initialize_mta
  00401EDF: E8 2C 05 00 00     call        ___scrt_initialize_mta
  00401EE4: 85 C0              test        eax,eax
  00401EE6: 75 01              jne         00401EE9
  00401EE8: C3                 ret
  00401EE9: 6A 07              push        7
  00401EEB: E8 16 05 00 00     call        ___scrt_fastfail
  00401EF0: CC                 int         3
post_pgo_initialization:
  00401EF1: E8 DB 04 00 00     call        ___scrt_initialize_default_local_stdio_options
  00401EF6: 33 C0              xor         eax,eax
  00401EF8: C3                 ret
pre_cpp_initialization:
  00401EF9: E8 59 05 00 00     call        ___scrt_set_unhandled_exception_filter
  00401EFE: E8 88 04 00 00     call        ___scrt_exe_initialize_mta
  00401F03: 50                 push        eax
  00401F04: E8 29 0A 00 00     call        __set_new_mode
  00401F09: 59                 pop         ecx
  00401F0A: C3                 ret
__scrt_common_main_seh:
  00401F0B: 6A 14              push        14h
  00401F0D: 68 48 3A 40 00     push        403A48h
  00401F12: E8 09 06 00 00     call        __SEH_prolog4
  00401F17: 6A 01              push        1
  00401F19: E8 F6 01 00 00     call        ___scrt_initialize_crt
  00401F1E: 59                 pop         ecx
  00401F1F: 84 C0              test        al,al
  00401F21: 0F 84 53 01 00 00  je          0040207A
  00401F27: 32 DB              xor         bl,bl
  00401F29: 88 5D E7           mov         byte ptr [ebp-19h],bl
  00401F2C: C7 45 FC 00 00 00  mov         dword ptr [ebp-4],0
            00
  00401F33: E8 AA 01 00 00     call        ___scrt_acquire_startup_lock
  00401F38: 88 45 DC           mov         byte ptr [ebp-24h],al
  00401F3B: A1 78 50 40 00     mov         eax,dword ptr [___scrt_current_native_startup_state]
  00401F40: 33 C9              xor         ecx,ecx
  00401F42: 41                 inc         ecx
  00401F43: 3B C1              cmp         eax,ecx
  00401F45: 0F 84 2F 01 00 00  je          0040207A
  00401F4B: 85 C0              test        eax,eax
  00401F4D: 75 49              jne         00401F98
  00401F4F: 89 0D 78 50 40 00  mov         dword ptr [___scrt_current_native_startup_state],ecx
  00401F55: 68 E4 30 40 00     push        offset ___xi_z
  00401F5A: 68 D8 30 40 00     push        offset ___xi_a
  00401F5F: E8 92 09 00 00     call        __initterm_e
  00401F64: 59                 pop         ecx
  00401F65: 59                 pop         ecx
  00401F66: 85 C0              test        eax,eax
  00401F68: 74 11              je          00401F7B
  00401F6A: C7 45 FC FE FF FF  mov         dword ptr [ebp-4],0FFFFFFFEh
            FF
  00401F71: B8 FF 00 00 00     mov         eax,0FFh
  00401F76: E9 EF 00 00 00     jmp         0040206A
  00401F7B: 68 D4 30 40 00     push        offset ___xc_z
  00401F80: 68 CC 30 40 00     push        offset ___xc_a
  00401F85: E8 66 09 00 00     call        __initterm
  00401F8A: 59                 pop         ecx
  00401F8B: 59                 pop         ecx
  00401F8C: C7 05 78 50 40 00  mov         dword ptr [___scrt_current_native_startup_state],2
            02 00 00 00
  00401F96: EB 05              jmp         00401F9D
  00401F98: 8A D9              mov         bl,cl
  00401F9A: 88 5D E7           mov         byte ptr [ebp-19h],bl
  00401F9D: FF 75 DC           push        dword ptr [ebp-24h]
  00401FA0: E8 C6 02 00 00     call        ___scrt_release_startup_lock
  00401FA5: 59                 pop         ecx
  00401FA6: E8 4F 04 00 00     call        ___scrt_get_dyn_tls_init_callback
  00401FAB: 8B F0              mov         esi,eax
  00401FAD: 33 FF              xor         edi,edi
  00401FAF: 39 3E              cmp         dword ptr [esi],edi
  00401FB1: 74 1B              je          00401FCE
  00401FB3: 56                 push        esi
  00401FB4: E8 1B 02 00 00     call        ___scrt_is_nonwritable_in_current_image
  00401FB9: 59                 pop         ecx
  00401FBA: 84 C0              test        al,al
  00401FBC: 74 10              je          00401FCE
  00401FBE: 8B 36              mov         esi,dword ptr [esi]
  00401FC0: 57                 push        edi
  00401FC1: 6A 02              push        2
  00401FC3: 57                 push        edi
  00401FC4: 8B CE              mov         ecx,esi
  00401FC6: FF 15 C4 30 40 00  call        dword ptr [___guard_check_icall_fptr]
  00401FCC: FF D6              call        esi
  00401FCE: E8 2D 04 00 00     call        ___scrt_get_dyn_tls_dtor_callback
  00401FD3: 8B F0              mov         esi,eax
  00401FD5: 39 3E              cmp         dword ptr [esi],edi
  00401FD7: 74 13              je          00401FEC
  00401FD9: 56                 push        esi
  00401FDA: E8 F5 01 00 00     call        ___scrt_is_nonwritable_in_current_image
  00401FDF: 59                 pop         ecx
  00401FE0: 84 C0              test        al,al
  00401FE2: 74 08              je          00401FEC
  00401FE4: FF 36              push        dword ptr [esi]
  00401FE6: E8 3B 09 00 00     call        __register_thread_local_exe_atexit_callback
  00401FEB: 59                 pop         ecx
  00401FEC: E8 F9 08 00 00     call        __get_initial_narrow_environment
  00401FF1: 8B F8              mov         edi,eax
  00401FF3: E8 1C 09 00 00     call        ___p___argv
  00401FF8: 8B 30              mov         esi,dword ptr [eax]
  00401FFA: E8 0F 09 00 00     call        ___p___argc
  00401FFF: 57                 push        edi
  00402000: 56                 push        esi
  00402001: FF 30              push        dword ptr [eax]
  00402003: E8 38 FB FF FF     call        _main
  00402008: 83 C4 0C           add         esp,0Ch
  0040200B: 8B F0              mov         esi,eax
  0040200D: E8 03 04 00 00     call        ___scrt_is_managed_app
  00402012: 84 C0              test        al,al
  00402014: 74 6B              je          00402081
  00402016: 84 DB              test        bl,bl
  00402018: 75 05              jne         0040201F
  0040201A: E8 FB 08 00 00     call        __cexit
  0040201F: 6A 00              push        0
  00402021: 6A 01              push        1
  00402023: E8 60 02 00 00     call        ___scrt_uninitialize_crt
  00402028: 59                 pop         ecx
  00402029: 59                 pop         ecx
  0040202A: C7 45 FC FE FF FF  mov         dword ptr [ebp-4],0FFFFFFFEh
            FF
  00402031: 8B C6              mov         eax,esi
  00402033: EB 35              jmp         0040206A
  00402035: 8B 4D EC           mov         ecx,dword ptr [ebp-14h]
  00402038: 8B 01              mov         eax,dword ptr [ecx]
  0040203A: 8B 00              mov         eax,dword ptr [eax]
  0040203C: 89 45 E0           mov         dword ptr [ebp-20h],eax
  0040203F: 51                 push        ecx
  00402040: 50                 push        eax
  00402041: E8 86 08 00 00     call        __seh_filter_exe
  00402046: 59                 pop         ecx
  00402047: 59                 pop         ecx
  00402048: C3                 ret
  00402049: 8B 65 E8           mov         esp,dword ptr [ebp-18h]
  0040204C: E8 C4 03 00 00     call        ___scrt_is_managed_app
  00402051: 84 C0              test        al,al
  00402053: 74 32              je          00402087
  00402055: 80 7D E7 00        cmp         byte ptr [ebp-19h],0
  00402059: 75 05              jne         00402060
  0040205B: E8 C0 08 00 00     call        __c_exit
  00402060: C7 45 FC FE FF FF  mov         dword ptr [ebp-4],0FFFFFFFEh
            FF
  00402067: 8B 45 E0           mov         eax,dword ptr [ebp-20h]
  0040206A: 8B 4D F0           mov         ecx,dword ptr [ebp-10h]
  0040206D: 64 89 0D 00 00 00  mov         dword ptr fs:[0],ecx
            00
  00402074: 59                 pop         ecx
  00402075: 5F                 pop         edi
  00402076: 5E                 pop         esi
  00402077: 5B                 pop         ebx
  00402078: C9                 leave
  00402079: C3                 ret
  0040207A: 6A 07              push        7
  0040207C: E8 85 03 00 00     call        ___scrt_fastfail
  00402081: 56                 push        esi
  00402082: E8 75 08 00 00     call        _exit
  00402087: FF 75 E0           push        dword ptr [ebp-20h]
  0040208A: E8 73 08 00 00     call        __exit
  0040208F: CC                 int         3
_mainCRTStartup:
  00402090: E8 AB 02 00 00     call        ___security_init_cookie
  00402095: E9 71 FE FF FF     jmp         00401F0B
___report_gsfailure:
  0040209A: 6A 02              push        2
  0040209C: 59                 pop         ecx
  0040209D: CD 29              int         29h
  0040209F: C3                 ret
find_pe_section:
  004020A0: 55                 push        ebp
  004020A1: 8B EC              mov         ebp,esp
  004020A3: 8B 45 08           mov         eax,dword ptr [ebp+8]
  004020A6: 56                 push        esi
  004020A7: 8B 48 3C           mov         ecx,dword ptr [eax+3Ch]
  004020AA: 03 C8              add         ecx,eax
  004020AC: 0F B7 41 14        movzx       eax,word ptr [ecx+14h]
  004020B0: 8D 51 18           lea         edx,[ecx+18h]
  004020B3: 03 D0              add         edx,eax
  004020B5: 0F B7 41 06        movzx       eax,word ptr [ecx+6]
  004020B9: 6B F0 28           imul        esi,eax,28h
  004020BC: 03 F2              add         esi,edx
  004020BE: EB 15              jmp         004020D5
  004020C0: 8B 4A 0C           mov         ecx,dword ptr [edx+0Ch]
  004020C3: 39 4D 0C           cmp         dword ptr [ebp+0Ch],ecx
  004020C6: 72 0A              jb          004020D2
  004020C8: 8B 42 08           mov         eax,dword ptr [edx+8]
  004020CB: 03 C1              add         eax,ecx
  004020CD: 39 45 0C           cmp         dword ptr [ebp+0Ch],eax
  004020D0: 72 0C              jb          004020DE
  004020D2: 83 C2 28           add         edx,28h
  004020D5: 3B D6              cmp         edx,esi
  004020D7: 75 E7              jne         004020C0
  004020D9: 33 C0              xor         eax,eax
  004020DB: 5E                 pop         esi
  004020DC: 5D                 pop         ebp
  004020DD: C3                 ret
  004020DE: 8B C2              mov         eax,edx
  004020E0: EB F9              jmp         004020DB
___scrt_acquire_startup_lock:
  004020E2: 56                 push        esi
  004020E3: E8 C6 07 00 00     call        ___scrt_is_ucrt_dll_in_use
  004020E8: 85 C0              test        eax,eax
  004020EA: 74 20              je          0040210C
  004020EC: 64 A1 18 00 00 00  mov         eax,dword ptr fs:[00000018h]
  004020F2: BE 7C 50 40 00     mov         esi,offset ___scrt_native_startup_lock
  004020F7: 8B 50 04           mov         edx,dword ptr [eax+4]
  004020FA: EB 04              jmp         00402100
  004020FC: 3B D0              cmp         edx,eax
  004020FE: 74 10              je          00402110
  00402100: 33 C0              xor         eax,eax
  00402102: 8B CA              mov         ecx,edx
  00402104: F0 0F B1 0E        lock cmpxchg dword ptr [esi],ecx
  00402108: 85 C0              test        eax,eax
  0040210A: 75 F0              jne         004020FC
  0040210C: 32 C0              xor         al,al
  0040210E: 5E                 pop         esi
  0040210F: C3                 ret
  00402110: B0 01              mov         al,1
  00402112: 5E                 pop         esi
  00402113: C3                 ret
___scrt_initialize_crt:
  00402114: 55                 push        ebp
  00402115: 8B EC              mov         ebp,esp
  00402117: 83 7D 08 00        cmp         dword ptr [ebp+8],0
  0040211B: 75 07              jne         00402124
  0040211D: C6 05 80 50 40 00  mov         byte ptr ds:[405080h],1
            01
  00402124: E8 6B 04 00 00     call        ___isa_available_init
  00402129: E8 76 02 00 00     call        ___acrt_initialize
  0040212E: 84 C0              test        al,al
  00402130: 75 04              jne         00402136
  00402132: 32 C0              xor         al,al
  00402134: 5D                 pop         ebp
  00402135: C3                 ret
  00402136: E8 69 02 00 00     call        ___acrt_initialize
  0040213B: 84 C0              test        al,al
  0040213D: 75 0A              jne         00402149
  0040213F: 6A 00              push        0
  00402141: E8 5E 02 00 00     call        ___acrt_initialize
  00402146: 59                 pop         ecx
  00402147: EB E9              jmp         00402132
  00402149: B0 01              mov         al,1
  0040214B: 5D                 pop         ebp
  0040214C: C3                 ret
___scrt_initialize_onexit_tables:
  0040214D: 55                 push        ebp
  0040214E: 8B EC              mov         ebp,esp
  00402150: 80 3D 81 50 40 00  cmp         byte ptr ds:[405081h],0
            00
  00402157: 74 04              je          0040215D
  00402159: B0 01              mov         al,1
  0040215B: 5D                 pop         ebp
  0040215C: C3                 ret
  0040215D: 56                 push        esi
  0040215E: 8B 75 08           mov         esi,dword ptr [ebp+8]
  00402161: 85 F6              test        esi,esi
  00402163: 74 05              je          0040216A
  00402165: 83 FE 01           cmp         esi,1
  00402168: 75 62              jne         004021CC
  0040216A: E8 3F 07 00 00     call        ___scrt_is_ucrt_dll_in_use
  0040216F: 85 C0              test        eax,eax
  00402171: 74 26              je          00402199
  00402173: 85 F6              test        esi,esi
  00402175: 75 22              jne         00402199
  00402177: 68 84 50 40 00     push        405084h
  0040217C: E8 BD 07 00 00     call        __initialize_onexit_table
  00402181: 59                 pop         ecx
  00402182: 85 C0              test        eax,eax
  00402184: 75 0F              jne         00402195
  00402186: 68 90 50 40 00     push        405090h
  0040218B: E8 AE 07 00 00     call        __initialize_onexit_table
  00402190: 59                 pop         ecx
  00402191: 85 C0              test        eax,eax
  00402193: 74 2B              je          004021C0
  00402195: 32 C0              xor         al,al
  00402197: EB 30              jmp         004021C9
  00402199: 83 C9 FF           or          ecx,0FFFFFFFFh
  0040219C: 89 0D 84 50 40 00  mov         dword ptr ds:[405084h],ecx
  004021A2: 89 0D 88 50 40 00  mov         dword ptr ds:[405088h],ecx
  004021A8: 89 0D 8C 50 40 00  mov         dword ptr ds:[40508Ch],ecx
  004021AE: 89 0D 90 50 40 00  mov         dword ptr ds:[405090h],ecx
  004021B4: 89 0D 94 50 40 00  mov         dword ptr ds:[405094h],ecx
  004021BA: 89 0D 98 50 40 00  mov         dword ptr ds:[405098h],ecx
  004021C0: C6 05 81 50 40 00  mov         byte ptr ds:[405081h],1
            01
  004021C7: B0 01              mov         al,1
  004021C9: 5E                 pop         esi
  004021CA: 5D                 pop         ebp
  004021CB: C3                 ret
  004021CC: 6A 05              push        5
  004021CE: E8 33 02 00 00     call        ___scrt_fastfail
  004021D3: CC                 int         3
___scrt_is_nonwritable_in_current_image:
  004021D4: 6A 08              push        8
  004021D6: 68 68 3A 40 00     push        403A68h
  004021DB: E8 40 03 00 00     call        __SEH_prolog4
  004021E0: C7 45 FC 00 00 00  mov         dword ptr [ebp-4],0
            00
  004021E7: B8 4D 5A 00 00     mov         eax,5A4Dh
  004021EC: 66 39 05 00 00 40  cmp         word ptr ds:[400000h],ax
            00
  004021F3: 75 5D              jne         00402252
  004021F5: A1 3C 00 40 00     mov         eax,dword ptr ds:[0040003Ch]
  004021FA: 81 B8 00 00 40 00  cmp         dword ptr [eax+400000h],4550h
            50 45 00 00
  00402204: 75 4C              jne         00402252
  00402206: B9 0B 01 00 00     mov         ecx,10Bh
  0040220B: 66 39 88 18 00 40  cmp         word ptr [eax+400018h],cx
            00
  00402212: 75 3E              jne         00402252
  00402214: 8B 45 08           mov         eax,dword ptr [ebp+8]
  00402217: B9 00 00 40 00     mov         ecx,400000h
  0040221C: 2B C1              sub         eax,ecx
  0040221E: 50                 push        eax
  0040221F: 51                 push        ecx
  00402220: E8 7B FE FF FF     call        004020A0
  00402225: 59                 pop         ecx
  00402226: 59                 pop         ecx
  00402227: 85 C0              test        eax,eax
  00402229: 74 27              je          00402252
  0040222B: 83 78 24 00        cmp         dword ptr [eax+24h],0
  0040222F: 7C 21              jl          00402252
  00402231: C7 45 FC FE FF FF  mov         dword ptr [ebp-4],0FFFFFFFEh
            FF
  00402238: B0 01              mov         al,1
  0040223A: EB 1F              jmp         0040225B
  0040223C: 8B 45 EC           mov         eax,dword ptr [ebp-14h]
  0040223F: 8B 00              mov         eax,dword ptr [eax]
  00402241: 33 C9              xor         ecx,ecx
  00402243: 81 38 05 00 00 C0  cmp         dword ptr [eax],0C0000005h
  00402249: 0F 94 C1           sete        cl
  0040224C: 8B C1              mov         eax,ecx
  0040224E: C3                 ret
  0040224F: 8B 65 E8           mov         esp,dword ptr [ebp-18h]
  00402252: C7 45 FC FE FF FF  mov         dword ptr [ebp-4],0FFFFFFFEh
            FF
  00402259: 32 C0              xor         al,al
  0040225B: 8B 4D F0           mov         ecx,dword ptr [ebp-10h]
  0040225E: 64 89 0D 00 00 00  mov         dword ptr fs:[0],ecx
            00
  00402265: 59                 pop         ecx
  00402266: 5F                 pop         edi
  00402267: 5E                 pop         esi
  00402268: 5B                 pop         ebx
  00402269: C9                 leave
  0040226A: C3                 ret
___scrt_release_startup_lock:
  0040226B: 55                 push        ebp
  0040226C: 8B EC              mov         ebp,esp
  0040226E: E8 3B 06 00 00     call        ___scrt_is_ucrt_dll_in_use
  00402273: 85 C0              test        eax,eax
  00402275: 74 0F              je          00402286
  00402277: 80 7D 08 00        cmp         byte ptr [ebp+8],0
  0040227B: 75 09              jne         00402286
  0040227D: 33 C0              xor         eax,eax
  0040227F: B9 7C 50 40 00     mov         ecx,offset ___scrt_native_startup_lock
  00402284: 87 01              xchg        eax,dword ptr [ecx]
  00402286: 5D                 pop         ebp
  00402287: C3                 ret
___scrt_uninitialize_crt:
  00402288: 55                 push        ebp
  00402289: 8B EC              mov         ebp,esp
  0040228B: 80 3D 80 50 40 00  cmp         byte ptr ds:[405080h],0
            00
  00402292: 74 06              je          0040229A
  00402294: 80 7D 0C 00        cmp         byte ptr [ebp+0Ch],0
  00402298: 75 12              jne         004022AC
  0040229A: FF 75 08           push        dword ptr [ebp+8]
  0040229D: E8 02 01 00 00     call        ___acrt_initialize
  004022A2: FF 75 08           push        dword ptr [ebp+8]
  004022A5: E8 FA 00 00 00     call        ___acrt_initialize
  004022AA: 59                 pop         ecx
  004022AB: 59                 pop         ecx
  004022AC: B0 01              mov         al,1
  004022AE: 5D                 pop         ebp
  004022AF: C3                 ret
__onexit:
  004022B0: 55                 push        ebp
  004022B1: 8B EC              mov         ebp,esp
  004022B3: 83 3D 84 50 40 00  cmp         dword ptr ds:[405084h],0FFFFFFFFh
            FF
  004022BA: FF 75 08           push        dword ptr [ebp+8]
  004022BD: 75 07              jne         004022C6
  004022BF: E8 86 06 00 00     call        __crt_atexit
  004022C4: EB 0B              jmp         004022D1
  004022C6: 68 84 50 40 00     push        405084h
  004022CB: E8 74 06 00 00     call        __register_onexit_function
  004022D0: 59                 pop         ecx
  004022D1: 59                 pop         ecx
  004022D2: 33 C9              xor         ecx,ecx
  004022D4: 85 C0              test        eax,eax
  004022D6: 0F 44 4D 08        cmove       ecx,dword ptr [ebp+8]
  004022DA: 8B C1              mov         eax,ecx
  004022DC: 5D                 pop         ebp
  004022DD: C3                 ret
_atexit:
  004022DE: 55                 push        ebp
  004022DF: 8B EC              mov         ebp,esp
  004022E1: FF 75 08           push        dword ptr [ebp+8]
  004022E4: E8 C7 FF FF FF     call        __onexit
  004022E9: F7 D8              neg         eax
  004022EB: 59                 pop         ecx
  004022EC: 1B C0              sbb         eax,eax
  004022EE: F7 D8              neg         eax
  004022F0: 48                 dec         eax
  004022F1: 5D                 pop         ebp
  004022F2: C3                 ret
__get_entropy:
  004022F3: 55                 push        ebp
  004022F4: 8B EC              mov         ebp,esp
  004022F6: 83 EC 14           sub         esp,14h
  004022F9: 8D 45 F4           lea         eax,[ebp-0Ch]
  004022FC: 0F 57 C0           xorps       xmm0,xmm0
  004022FF: 50                 push        eax
  00402300: 66 0F 13 45 F4     movlpd      qword ptr [ebp-0Ch],xmm0
  00402305: FF 15 10 30 40 00  call        dword ptr [__imp__GetSystemTimeAsFileTime@4]
  0040230B: 8B 45 F8           mov         eax,dword ptr [ebp-8]
  0040230E: 33 45 F4           xor         eax,dword ptr [ebp-0Ch]
  00402311: 89 45 FC           mov         dword ptr [ebp-4],eax
  00402314: FF 15 0C 30 40 00  call        dword ptr [__imp__GetCurrentThreadId@0]
  0040231A: 31 45 FC           xor         dword ptr [ebp-4],eax
  0040231D: FF 15 08 30 40 00  call        dword ptr [__imp__GetCurrentProcessId@0]
  00402323: 31 45 FC           xor         dword ptr [ebp-4],eax
  00402326: 8D 45 EC           lea         eax,[ebp-14h]
  00402329: 50                 push        eax
  0040232A: FF 15 04 30 40 00  call        dword ptr [__imp__QueryPerformanceCounter@4]
  00402330: 8B 45 F0           mov         eax,dword ptr [ebp-10h]
  00402333: 8D 4D FC           lea         ecx,[ebp-4]
  00402336: 33 45 EC           xor         eax,dword ptr [ebp-14h]
  00402339: 33 45 FC           xor         eax,dword ptr [ebp-4]
  0040233C: 33 C1              xor         eax,ecx
  0040233E: C9                 leave
  0040233F: C3                 ret
___security_init_cookie:
  00402340: 8B 0D 00 50 40 00  mov         ecx,dword ptr [___security_cookie]
  00402346: 56                 push        esi
  00402347: 57                 push        edi
  00402348: BF 4E E6 40 BB     mov         edi,0BB40E64Eh
  0040234D: BE 00 00 FF FF     mov         esi,0FFFF0000h
  00402352: 3B CF              cmp         ecx,edi
  00402354: 74 04              je          0040235A
  00402356: 85 CE              test        esi,ecx
  00402358: 75 26              jne         00402380
  0040235A: E8 94 FF FF FF     call        004022F3
  0040235F: 8B C8              mov         ecx,eax
  00402361: 3B CF              cmp         ecx,edi
  00402363: 75 07              jne         0040236C
  00402365: B9 4F E6 40 BB     mov         ecx,0BB40E64Fh
  0040236A: EB 0E              jmp         0040237A
  0040236C: 85 CE              test        esi,ecx
  0040236E: 75 0A              jne         0040237A
  00402370: 0D 11 47 00 00     or          eax,4711h
  00402375: C1 E0 10           shl         eax,10h
  00402378: 0B C8              or          ecx,eax
  0040237A: 89 0D 00 50 40 00  mov         dword ptr [___security_cookie],ecx
  00402380: F7 D1              not         ecx
  00402382: 5F                 pop         edi
  00402383: 89 0D 40 50 40 00  mov         dword ptr [___security_cookie_complement],ecx
  00402389: 5E                 pop         esi
  0040238A: C3                 ret
___scrt_exe_initialize_mta:
  0040238B: 33 C0              xor         eax,eax
  0040238D: C3                 ret
__get_startup_argv_mode:
  0040238E: 33 C0              xor         eax,eax
  00402390: 40                 inc         eax
  00402391: C3                 ret
__get_startup_file_mode:
  00402392: B8 00 40 00 00     mov         eax,4000h
  00402397: C3                 ret
?__scrt_initialize_type_info@@YAXXZ:
  00402398: 68 A0 50 40 00     push        offset ?__type_info_root_node@@3U__type_info_node@@A
  0040239D: FF 15 14 30 40 00  call        dword ptr [__imp__InitializeSListHead@4]
  004023A3: C3                 ret
___acrt_initialize:
  004023A4: B0 01              mov         al,1
  004023A6: C3                 ret
__initialize_default_precision:
  004023A7: 68 00 00 03 00     push        30000h
  004023AC: 68 00 00 01 00     push        10000h
  004023B1: 6A 00              push        0
  004023B3: E8 98 05 00 00     call        __controlfp_s
  004023B8: 83 C4 0C           add         esp,0Ch
  004023BB: 85 C0              test        eax,eax
  004023BD: 75 01              jne         004023C0
  004023BF: C3                 ret
  004023C0: 6A 07              push        7
  004023C2: E8 3F 00 00 00     call        ___scrt_fastfail
  004023C7: CC                 int         3
@_guard_check_icall_nop@4:
  004023C8: C2 00 00           ret         0
___local_stdio_scanf_options:
  004023CB: B8 A8 50 40 00     mov         eax,offset ?_OptionsStorage@?1??__local_stdio_scanf_options@@9@4_KA
  004023D0: C3                 ret
___scrt_initialize_default_local_stdio_options:
  004023D1: E8 2A EC FF FF     call        ___local_stdio_printf_options
  004023D6: 8B 48 04           mov         ecx,dword ptr [eax+4]
  004023D9: 83 08 24           or          dword ptr [eax],24h
  004023DC: 89 48 04           mov         dword ptr [eax+4],ecx
  004023DF: E8 E7 FF FF FF     call        ___local_stdio_scanf_options
  004023E4: 8B 48 04           mov         ecx,dword ptr [eax+4]
  004023E7: 83 08 02           or          dword ptr [eax],2
  004023EA: 89 48 04           mov         dword ptr [eax+4],ecx
  004023ED: C3                 ret
___scrt_is_user_matherr_present:
  004023EE: 33 C0              xor         eax,eax
  004023F0: 39 05 48 50 40 00  cmp         dword ptr [___scrt_default_matherr],eax
  004023F6: 0F 94 C0           sete        al
  004023F9: C3                 ret
___scrt_get_dyn_tls_init_callback:
  004023FA: B8 C4 50 40 00     mov         eax,offset ___dyn_tls_init_callback
  004023FF: C3                 ret
___scrt_get_dyn_tls_dtor_callback:
  00402400: B8 C0 50 40 00     mov         eax,offset ___dyn_tls_dtor_callback
  00402405: C3                 ret
___scrt_fastfail:
  00402406: 55                 push        ebp
  00402407: 8B EC              mov         ebp,esp
  00402409: 8B 4D 08           mov         ecx,dword ptr [ebp+8]
  0040240C: CD 29              int         29h
  0040240E: 5D                 pop         ebp
  0040240F: C3                 ret
___scrt_initialize_mta:
  00402410: E9 76 FF FF FF     jmp         ___scrt_exe_initialize_mta
___scrt_is_managed_app:
  00402415: 6A 00              push        0
  00402417: FF 15 1C 30 40 00  call        dword ptr [__imp__GetModuleHandleW@4]
  0040241D: 85 C0              test        eax,eax
  0040241F: 74 33              je          00402454
  00402421: B9 4D 5A 00 00     mov         ecx,5A4Dh
  00402426: 66 39 08           cmp         word ptr [eax],cx
  00402429: 75 29              jne         00402454
  0040242B: 8B 48 3C           mov         ecx,dword ptr [eax+3Ch]
  0040242E: 03 C8              add         ecx,eax
  00402430: 81 39 50 45 00 00  cmp         dword ptr [ecx],4550h
  00402436: 75 1C              jne         00402454
  00402438: B8 0B 01 00 00     mov         eax,10Bh
  0040243D: 66 39 41 18        cmp         word ptr [ecx+18h],ax
  00402441: 75 11              jne         00402454
  00402443: 83 79 74 0E        cmp         dword ptr [ecx+74h],0Eh
  00402447: 76 0B              jbe         00402454
  00402449: 83 B9 E8 00 00 00  cmp         dword ptr [ecx+0E8h],0
            00
  00402450: 0F 95 C0           setne       al
  00402453: C3                 ret
  00402454: 32 C0              xor         al,al
  00402456: C3                 ret
___scrt_set_unhandled_exception_filter:
  00402457: 68 63 24 40 00     push        offset ___scrt_unhandled_exception_filter@4
  0040245C: FF 15 18 30 40 00  call        dword ptr [__imp__SetUnhandledExceptionFilter@4]
  00402462: C3                 ret
___scrt_unhandled_exception_filter@4:
  00402463: 55                 push        ebp
  00402464: 8B EC              mov         ebp,esp
  00402466: 56                 push        esi
  00402467: 57                 push        edi
  00402468: 8B 7D 08           mov         edi,dword ptr [ebp+8]
  0040246B: 8B 37              mov         esi,dword ptr [edi]
  0040246D: 81 3E 63 73 6D E0  cmp         dword ptr [esi],0E06D7363h
  00402473: 75 25              jne         0040249A
  00402475: 83 7E 10 03        cmp         dword ptr [esi+10h],3
  00402479: 75 1F              jne         0040249A
  0040247B: 8B 46 14           mov         eax,dword ptr [esi+14h]
  0040247E: 3D 20 05 93 19     cmp         eax,19930520h
  00402483: 74 1D              je          004024A2
  00402485: 3D 21 05 93 19     cmp         eax,19930521h
  0040248A: 74 16              je          004024A2
  0040248C: 3D 22 05 93 19     cmp         eax,19930522h
  00402491: 74 0F              je          004024A2
  00402493: 3D 00 40 99 01     cmp         eax,1994000h
  00402498: 74 08              je          004024A2
  0040249A: 5F                 pop         edi
  0040249B: 33 C0              xor         eax,eax
  0040249D: 5E                 pop         esi
  0040249E: 5D                 pop         ebp
  0040249F: C2 04 00           ret         4
  004024A2: E8 13 04 00 00     call        ___current_exception
  004024A7: 89 30              mov         dword ptr [eax],esi
  004024A9: 8B 77 04           mov         esi,dword ptr [edi+4]
  004024AC: E8 0F 04 00 00     call        ___current_exception_context
  004024B1: 89 30              mov         dword ptr [eax],esi
  004024B3: E8 9E 04 00 00     call        _terminate
  004024B8: CC                 int         3
__RTC_Initialize:
  004024B9: 53                 push        ebx
  004024BA: 56                 push        esi
  004024BB: BE 38 3A 40 00     mov         esi,offset ___rtc_izz
  004024C0: BB 38 3A 40 00     mov         ebx,offset ___rtc_izz
  004024C5: 3B F3              cmp         esi,ebx
  004024C7: 73 19              jae         004024E2
  004024C9: 57                 push        edi
  004024CA: 8B 3E              mov         edi,dword ptr [esi]
  004024CC: 85 FF              test        edi,edi
  004024CE: 74 0A              je          004024DA
  004024D0: 8B CF              mov         ecx,edi
  004024D2: FF 15 C4 30 40 00  call        dword ptr [___guard_check_icall_fptr]
  004024D8: FF D7              call        edi
  004024DA: 83 C6 04           add         esi,4
  004024DD: 3B F3              cmp         esi,ebx
  004024DF: 72 E9              jb          004024CA
  004024E1: 5F                 pop         edi
  004024E2: 5E                 pop         esi
  004024E3: 5B                 pop         ebx
  004024E4: C3                 ret
__RTC_Terminate:
  004024E5: 53                 push        ebx
  004024E6: 56                 push        esi
  004024E7: BE 40 3A 40 00     mov         esi,offset ___rtc_tzz
  004024EC: BB 40 3A 40 00     mov         ebx,offset ___rtc_tzz
  004024F1: 3B F3              cmp         esi,ebx
  004024F3: 73 19              jae         0040250E
  004024F5: 57                 push        edi
  004024F6: 8B 3E              mov         edi,dword ptr [esi]
  004024F8: 85 FF              test        edi,edi
  004024FA: 74 0A              je          00402506
  004024FC: 8B CF              mov         ecx,edi
  004024FE: FF 15 C4 30 40 00  call        dword ptr [___guard_check_icall_fptr]
  00402504: FF D7              call        edi
  00402506: 83 C6 04           add         esi,4
  00402509: 3B F3              cmp         esi,ebx
  0040250B: 72 E9              jb          004024F6
  0040250D: 5F                 pop         edi
  0040250E: 5E                 pop         esi
  0040250F: 5B                 pop         ebx
  00402510: C3                 ret
  00402511: CC CC CC CC CC CC CC CC CC CC CC CC CC CC CC     ...............
__SEH_prolog4:
  00402520: 68 65 25 40 00     push        offset __except_handler4
  00402525: 64 FF 35 00 00 00  push        dword ptr fs:[0]
            00
  0040252C: 8B 44 24 10        mov         eax,dword ptr [esp+10h]
  00402530: 89 6C 24 10        mov         dword ptr [esp+10h],ebp
  00402534: 8D 6C 24 10        lea         ebp,[esp+10h]
  00402538: 2B E0              sub         esp,eax
  0040253A: 53                 push        ebx
  0040253B: 56                 push        esi
  0040253C: 57                 push        edi
  0040253D: A1 00 50 40 00     mov         eax,dword ptr [___security_cookie]
  00402542: 31 45 FC           xor         dword ptr [ebp-4],eax
  00402545: 33 C5              xor         eax,ebp
  00402547: 50                 push        eax
  00402548: 89 65 E8           mov         dword ptr [ebp-18h],esp
  0040254B: FF 75 F8           push        dword ptr [ebp-8]
  0040254E: 8B 45 FC           mov         eax,dword ptr [ebp-4]
  00402551: C7 45 FC FE FF FF  mov         dword ptr [ebp-4],0FFFFFFFEh
            FF
  00402558: 89 45 F8           mov         dword ptr [ebp-8],eax
  0040255B: 8D 45 F0           lea         eax,[ebp-10h]
  0040255E: 64 A3 00 00 00 00  mov         dword ptr fs:[00000000h],eax
  00402564: C3                 ret
__except_handler4:
  00402565: 55                 push        ebp
  00402566: 8B EC              mov         ebp,esp
  00402568: 56                 push        esi
  00402569: 8B 75 08           mov         esi,dword ptr [ebp+8]
  0040256C: FF 36              push        dword ptr [esi]
  0040256E: E8 E9 03 00 00     call        __filter_x86_sse2_floating_point_exception
  00402573: FF 75 14           push        dword ptr [ebp+14h]
  00402576: 89 06              mov         dword ptr [esi],eax
  00402578: FF 75 10           push        dword ptr [ebp+10h]
  0040257B: FF 75 0C           push        dword ptr [ebp+0Ch]
  0040257E: 56                 push        esi
  0040257F: 68 38 1E 40 00     push        offset @__security_check_cookie@4
  00402584: 68 00 50 40 00     push        offset ___security_cookie
  00402589: E8 38 03 00 00     call        __except_handler4_common
  0040258E: 83 C4 1C           add         esp,1Ch
  00402591: 5E                 pop         esi
  00402592: 5D                 pop         ebp
  00402593: C3                 ret
___isa_available_init:
  00402594: 55                 push        ebp
  00402595: 8B EC              mov         ebp,esp
  00402597: 83 0D 50 50 40 00  or          dword ptr [___isa_enabled],1
            01
  0040259E: 83 EC 28           sub         esp,28h
  004025A1: C7 05 B4 50 40 00  mov         dword ptr [___isa_available],0
            00 00 00 00
  004025AB: 6A 0A              push        0Ah
  004025AD: FF 15 20 30 40 00  call        dword ptr [__imp__IsProcessorFeaturePresent@4]
  004025B3: 85 C0              test        eax,eax
  004025B5: 0F 84 EF 02 00 00  je          004028AA
  004025BB: 53                 push        ebx
  004025BC: 56                 push        esi
  004025BD: 57                 push        edi
  004025BE: 33 C0              xor         eax,eax
  004025C0: 8D 7D D8           lea         edi,[ebp-28h]
  004025C3: 33 C9              xor         ecx,ecx
  004025C5: 53                 push        ebx
  004025C6: 0F A2              cpuid
  004025C8: 8B F3              mov         esi,ebx
  004025CA: 5B                 pop         ebx
  004025CB: 90                 nop
  004025CC: 89 07              mov         dword ptr [edi],eax
  004025CE: 89 77 04           mov         dword ptr [edi+4],esi
  004025D1: 89 4F 08           mov         dword ptr [edi+8],ecx
  004025D4: 89 57 0C           mov         dword ptr [edi+0Ch],edx
  004025D7: 8B 45 D8           mov         eax,dword ptr [ebp-28h]
  004025DA: 8B 4D E4           mov         ecx,dword ptr [ebp-1Ch]
  004025DD: 89 45 FC           mov         dword ptr [ebp-4],eax
  004025E0: 81 F1 69 6E 65 49  xor         ecx,49656E69h
  004025E6: 8B 45 E0           mov         eax,dword ptr [ebp-20h]
  004025E9: 35 6E 74 65 6C     xor         eax,6C65746Eh
  004025EE: 0B C8              or          ecx,eax
  004025F0: 8B 45 DC           mov         eax,dword ptr [ebp-24h]
  004025F3: 6A 01              push        1
  004025F5: 35 47 65 6E 75     xor         eax,756E6547h
  004025FA: 0B C8              or          ecx,eax
  004025FC: 58                 pop         eax
  004025FD: 6A 00              push        0
  004025FF: 59                 pop         ecx
  00402600: 53                 push        ebx
  00402601: 0F A2              cpuid
  00402603: 8B F3              mov         esi,ebx
  00402605: 5B                 pop         ebx
  00402606: 90                 nop
  00402607: 89 07              mov         dword ptr [edi],eax
  00402609: 89 77 04           mov         dword ptr [edi+4],esi
  0040260C: 89 4F 08           mov         dword ptr [edi+8],ecx
  0040260F: 89 57 0C           mov         dword ptr [edi+0Ch],edx
  00402612: 75 39              jne         0040264D
  00402614: 8B 45 D8           mov         eax,dword ptr [ebp-28h]
  00402617: 25 F0 3F FF 0F     and         eax,0FFF3FF0h
  0040261C: 3D C0 06 01 00     cmp         eax,106C0h
  00402621: 74 23              je          00402646
  00402623: 3D 60 06 02 00     cmp         eax,20660h
  00402628: 74 1C              je          00402646
  0040262A: 3D 70 06 02 00     cmp         eax,20670h
  0040262F: 74 15              je          00402646
  00402631: 3D 50 06 03 00     cmp         eax,30650h
  00402636: 74 0E              je          00402646
  00402638: 3D 60 06 03 00     cmp         eax,30660h
  0040263D: 74 07              je          00402646
  0040263F: 3D 70 06 03 00     cmp         eax,30670h
  00402644: 75 07              jne         0040264D
  00402646: 83 0D B8 50 40 00  or          dword ptr [___favor],1
            01
  0040264D: 8B 55 E0           mov         edx,dword ptr [ebp-20h]
  00402650: 33 DB              xor         ebx,ebx
  00402652: 33 FF              xor         edi,edi
  00402654: 89 55 F4           mov         dword ptr [ebp-0Ch],edx
  00402657: 83 7D FC 07        cmp         dword ptr [ebp-4],7
  0040265B: 89 5D EC           mov         dword ptr [ebp-14h],ebx
  0040265E: 89 5D E8           mov         dword ptr [ebp-18h],ebx
  00402661: 0F 8C 87 00 00 00  jl          004026EE
  00402667: 6A 07              push        7
  00402669: 58                 pop         eax
  0040266A: 33 C9              xor         ecx,ecx
  0040266C: 53                 push        ebx
  0040266D: 0F A2              cpuid
  0040266F: 8B F3              mov         esi,ebx
  00402671: 5B                 pop         ebx
  00402672: 90                 nop
  00402673: 8D 5D D8           lea         ebx,[ebp-28h]
  00402676: 89 03              mov         dword ptr [ebx],eax
  00402678: 89 73 04           mov         dword ptr [ebx+4],esi
  0040267B: 89 4B 08           mov         dword ptr [ebx+8],ecx
  0040267E: 89 53 0C           mov         dword ptr [ebx+0Ch],edx
  00402681: 8B 5D DC           mov         ebx,dword ptr [ebp-24h]
  00402684: 8B 45 E4           mov         eax,dword ptr [ebp-1Ch]
  00402687: 89 5D F8           mov         dword ptr [ebp-8],ebx
  0040268A: 89 45 EC           mov         dword ptr [ebp-14h],eax
  0040268D: F7 C3 00 02 00 00  test        ebx,200h
  00402693: 74 07              je          0040269C
  00402695: 83 0D B8 50 40 00  or          dword ptr [___favor],2
            02
  0040269C: 83 7D D8 01        cmp         dword ptr [ebp-28h],1
  004026A0: 7C 24              jl          004026C6
  004026A2: 6A 07              push        7
  004026A4: 58                 pop         eax
  004026A5: 33 C9              xor         ecx,ecx
  004026A7: 41                 inc         ecx
  004026A8: 53                 push        ebx
  004026A9: 0F A2              cpuid
  004026AB: 8B F3              mov         esi,ebx
  004026AD: 5B                 pop         ebx
  004026AE: 90                 nop
  004026AF: 8D 5D D8           lea         ebx,[ebp-28h]
  004026B2: 89 03              mov         dword ptr [ebx],eax
  004026B4: 89 73 04           mov         dword ptr [ebx+4],esi
  004026B7: 89 4B 08           mov         dword ptr [ebx+8],ecx
  004026BA: 89 53 0C           mov         dword ptr [ebx+0Ch],edx
  004026BD: 8B 45 E4           mov         eax,dword ptr [ebp-1Ch]
  004026C0: 8B 5D F8           mov         ebx,dword ptr [ebp-8]
  004026C3: 89 45 E8           mov         dword ptr [ebp-18h],eax
  004026C6: 6A 24              push        24h
  004026C8: 58                 pop         eax
  004026C9: 39 45 FC           cmp         dword ptr [ebp-4],eax
  004026CC: 7C 1D              jl          004026EB
  004026CE: 33 C9              xor         ecx,ecx
  004026D0: 8D 7D D8           lea         edi,[ebp-28h]
  004026D3: 53                 push        ebx
  004026D4: 0F A2              cpuid
  004026D6: 8B F3              mov         esi,ebx
  004026D8: 5B                 pop         ebx
  004026D9: 90                 nop
  004026DA: 8B 5D F8           mov         ebx,dword ptr [ebp-8]
  004026DD: 89 07              mov         dword ptr [edi],eax
  004026DF: 89 77 04           mov         dword ptr [edi+4],esi
  004026E2: 89 4F 08           mov         dword ptr [edi+8],ecx
  004026E5: 89 57 0C           mov         dword ptr [edi+0Ch],edx
  004026E8: 8B 7D DC           mov         edi,dword ptr [ebp-24h]
  004026EB: 8B 55 F4           mov         edx,dword ptr [ebp-0Ch]
  004026EE: A1 50 50 40 00     mov         eax,dword ptr [___isa_enabled]
  004026F3: 8B 0D 58 50 40 00  mov         ecx,dword ptr [___isa_inverted]
  004026F9: 83 C8 02           or          eax,2
  004026FC: 8B 35 5C 50 40 00  mov         esi,dword ptr ds:[40505Ch]
  00402702: 83 E1 FE           and         ecx,0FFFFFFFEh
  00402705: C7 05 B4 50 40 00  mov         dword ptr [___isa_available],1
            01 00 00 00
  0040270F: A3 50 50 40 00     mov         dword ptr [___isa_enabled],eax
  00402714: 89 0D 58 50 40 00  mov         dword ptr [___isa_inverted],ecx
  0040271A: 89 35 5C 50 40 00  mov         dword ptr ds:[40505Ch],esi
  00402720: F7 C2 00 00 10 00  test        edx,100000h
  00402726: 0F 84 7B 01 00 00  je          004028A7
  0040272C: 83 C8 04           or          eax,4
  0040272F: C7 05 B4 50 40 00  mov         dword ptr [___isa_available],2
            02 00 00 00
  00402739: A3 50 50 40 00     mov         dword ptr [___isa_enabled],eax
  0040273E: 83 E1 EF           and         ecx,0FFFFFFEFh
  00402741: B8 00 00 00 18     mov         eax,18000000h
  00402746: 89 0D 58 50 40 00  mov         dword ptr [___isa_inverted],ecx
  0040274C: 23 D0              and         edx,eax
  0040274E: 89 35 5C 50 40 00  mov         dword ptr ds:[40505Ch],esi
  00402754: 3B D0              cmp         edx,eax
  00402756: 0F 85 4B 01 00 00  jne         004028A7
  0040275C: 33 C9              xor         ecx,ecx
  0040275E: 0F 01 D0           xgetbv
  00402761: 89 45 F0           mov         dword ptr [ebp-10h],eax
  00402764: 33 F6              xor         esi,esi
  00402766: 89 55 F4           mov         dword ptr [ebp-0Ch],edx
  00402769: 8B 45 F0           mov         eax,dword ptr [ebp-10h]
  0040276C: 8B 4D F4           mov         ecx,dword ptr [ebp-0Ch]
  0040276F: 83 E0 06           and         eax,6
  00402772: 23 CE              and         ecx,esi
  00402774: 83 F8 06           cmp         eax,6
  00402777: 0F 85 2A 01 00 00  jne         004028A7
  0040277D: 3B CE              cmp         ecx,esi
  0040277F: 0F 85 22 01 00 00  jne         004028A7
  00402785: A1 50 50 40 00     mov         eax,dword ptr [___isa_enabled]
  0040278A: 83 C8 08           or          eax,8
  0040278D: C7 05 B4 50 40 00  mov         dword ptr [___isa_available],3
            03 00 00 00
  00402797: A3 50 50 40 00     mov         dword ptr [___isa_enabled],eax
  0040279C: F6 C3 20           test        bl,20h
  0040279F: 74 79              je          0040281A
  004027A1: 8B 0D 5C 50 40 00  mov         ecx,dword ptr ds:[40505Ch]
  004027A7: 83 C8 20           or          eax,20h
  004027AA: A3 50 50 40 00     mov         dword ptr [___isa_enabled],eax
  004027AF: BA 00 00 03 D0     mov         edx,0D0030000h
  004027B4: A1 58 50 40 00     mov         eax,dword ptr [___isa_inverted]
  004027B9: 23 DA              and         ebx,edx
  004027BB: 83 E0 FD           and         eax,0FFFFFFFDh
  004027BE: C7 05 B4 50 40 00  mov         dword ptr [___isa_available],5
            05 00 00 00
  004027C8: A3 58 50 40 00     mov         dword ptr [___isa_inverted],eax
  004027CD: 89 0D 5C 50 40 00  mov         dword ptr ds:[40505Ch],ecx
  004027D3: 3B DA              cmp         ebx,edx
  004027D5: 75 4E              jne         00402825
  004027D7: 8B 45 F0           mov         eax,dword ptr [ebp-10h]
  004027DA: BA E0 00 00 00     mov         edx,0E0h
  004027DF: 8B 4D F4           mov         ecx,dword ptr [ebp-0Ch]
  004027E2: 23 C2              and         eax,edx
  004027E4: 23 CE              and         ecx,esi
  004027E6: 3B C2              cmp         eax,edx
  004027E8: 75 30              jne         0040281A
  004027EA: 3B CE              cmp         ecx,esi
  004027EC: 75 2C              jne         0040281A
  004027EE: A1 58 50 40 00     mov         eax,dword ptr [___isa_inverted]
  004027F3: 83 0D 50 50 40 00  or          dword ptr [___isa_enabled],40h
            40
  004027FA: 83 E0 DB           and         eax,0FFFFFFDBh
  004027FD: 8B 0D 5C 50 40 00  mov         ecx,dword ptr ds:[40505Ch]
  00402803: C7 05 B4 50 40 00  mov         dword ptr [___isa_available],6
            06 00 00 00
  0040280D: A3 58 50 40 00     mov         dword ptr [___isa_inverted],eax
  00402812: 89 0D 5C 50 40 00  mov         dword ptr ds:[40505Ch],ecx
  00402818: EB 0B              jmp         00402825
  0040281A: 8B 0D 5C 50 40 00  mov         ecx,dword ptr ds:[40505Ch]
  00402820: A1 58 50 40 00     mov         eax,dword ptr [___isa_inverted]
  00402825: F7 45 EC 00 00 80  test        dword ptr [ebp-14h],800000h
            00
  0040282C: 74 10              je          0040283E
  0040282E: 25 FF FF FF FE     and         eax,0FEFFFFFFh
  00402833: 89 0D 5C 50 40 00  mov         dword ptr ds:[40505Ch],ecx
  00402839: A3 58 50 40 00     mov         dword ptr [___isa_inverted],eax
  0040283E: F7 45 E8 00 00 08  test        dword ptr [ebp-18h],80000h
            00
  00402845: 74 60              je          004028A7
  00402847: 8B 45 F0           mov         eax,dword ptr [ebp-10h]
  0040284A: BA E0 00 00 00     mov         edx,0E0h
  0040284F: 8B 4D F4           mov         ecx,dword ptr [ebp-0Ch]
  00402852: 23 C2              and         eax,edx
  00402854: 23 CE              and         ecx,esi
  00402856: 3B C2              cmp         eax,edx
  00402858: 75 4D              jne         004028A7
  0040285A: 3B CE              cmp         ecx,esi
  0040285C: 75 49              jne         004028A7
  0040285E: 8B C7              mov         eax,edi
  00402860: 33 C9              xor         ecx,ecx
  00402862: C1 EF 10           shr         edi,10h
  00402865: 25 FF 00 04 00     and         eax,400FFh
  0040286A: 83 E7 06           and         edi,6
  0040286D: A3 BC 50 40 00     mov         dword ptr [___avx10_version],eax
  00402872: 81 CF 29 00 00 01  or          edi,1000029h
  00402878: F7 D1              not         ecx
  0040287A: 23 0D 5C 50 40 00  and         ecx,dword ptr ds:[40505Ch]
  00402880: F7 D7              not         edi
  00402882: 23 3D 58 50 40 00  and         edi,dword ptr [___isa_inverted]
  00402888: 89 3D 58 50 40 00  mov         dword ptr [___isa_inverted],edi
  0040288E: 89 0D 5C 50 40 00  mov         dword ptr ds:[40505Ch],ecx
  00402894: 3C 01              cmp         al,1
  00402896: 76 0F              jbe         004028A7
  00402898: 83 E7 BF           and         edi,0FFFFFFBFh
  0040289B: 89 0D 5C 50 40 00  mov         dword ptr ds:[40505Ch],ecx
  004028A1: 89 3D 58 50 40 00  mov         dword ptr [___isa_inverted],edi
  004028A7: 5F                 pop         edi
  004028A8: 5E                 pop         esi
  004028A9: 5B                 pop         ebx
  004028AA: 33 C0              xor         eax,eax
  004028AC: C9                 leave
  004028AD: C3                 ret
___scrt_is_ucrt_dll_in_use:
  004028AE: 33 C0              xor         eax,eax
  004028B0: 39 05 60 50 40 00  cmp         dword ptr [___scrt_ucrt_dll_is_in_use],eax
  004028B6: 0F 95 C0           setne       al
  004028B9: C3                 ret
___current_exception:
  004028BA: FF 25 34 30 40 00  jmp         dword ptr [__imp____current_exception]
___current_exception_context:
  004028C0: FF 25 30 30 40 00  jmp         dword ptr [__imp____current_exception_context]
__except_handler4_common:
  004028C6: FF 25 2C 30 40 00  jmp         dword ptr [__imp___except_handler4_common]
__seh_filter_exe:
  004028CC: FF 25 68 30 40 00  jmp         dword ptr [__imp___seh_filter_exe]
__set_app_type:
  004028D2: FF 25 84 30 40 00  jmp         dword ptr [__imp___set_app_type]
___setusermatherr:
  004028D8: FF 25 4C 30 40 00  jmp         dword ptr [__imp____setusermatherr]
__configure_narrow_argv:
  004028DE: FF 25 9C 30 40 00  jmp         dword ptr [__imp___configure_narrow_argv]
__initialize_narrow_environment:
  004028E4: FF 25 98 30 40 00  jmp         dword ptr [__imp___initialize_narrow_environment]
__get_initial_narrow_environment:
  004028EA: FF 25 94 30 40 00  jmp         dword ptr [__imp___get_initial_narrow_environment]
__initterm:
  004028F0: FF 25 90 30 40 00  jmp         dword ptr [__imp___initterm]
__initterm_e:
  004028F6: FF 25 64 30 40 00  jmp         dword ptr [__imp___initterm_e]
_exit:
  004028FC: FF 25 60 30 40 00  jmp         dword ptr [__imp__exit]
__exit:
  00402902: FF 25 8C 30 40 00  jmp         dword ptr [__imp___exit]
__set_fmode:
  00402908: FF 25 A4 30 40 00  jmp         dword ptr [__imp___set_fmode]
___p___argc:
  0040290E: FF 25 88 30 40 00  jmp         dword ptr [__imp____p___argc]
___p___argv:
  00402914: FF 25 6C 30 40 00  jmp         dword ptr [__imp____p___argv]
__cexit:
  0040291A: FF 25 54 30 40 00  jmp         dword ptr [__imp___cexit]
__c_exit:
  00402920: FF 25 58 30 40 00  jmp         dword ptr [__imp___c_exit]
__register_thread_local_exe_atexit_callback:
  00402926: FF 25 5C 30 40 00  jmp         dword ptr [__imp___register_thread_local_exe_atexit_callback]
__configthreadlocale:
  0040292C: FF 25 44 30 40 00  jmp         dword ptr [__imp___configthreadlocale]
__set_new_mode:
  00402932: FF 25 3C 30 40 00  jmp         dword ptr [__imp___set_new_mode]
___p__commode:
  00402938: FF 25 A8 30 40 00  jmp         dword ptr [__imp____p__commode]
__initialize_onexit_table:
  0040293E: FF 25 70 30 40 00  jmp         dword ptr [__imp___initialize_onexit_table]
__register_onexit_function:
  00402944: FF 25 74 30 40 00  jmp         dword ptr [__imp___register_onexit_function]
__crt_atexit:
  0040294A: FF 25 78 30 40 00  jmp         dword ptr [__imp___crt_atexit]
__controlfp_s:
  00402950: FF 25 7C 30 40 00  jmp         dword ptr [__imp___controlfp_s]
_terminate:
  00402956: FF 25 80 30 40 00  jmp         dword ptr [__imp__terminate]
__filter_x86_sse2_floating_point_exception:
  0040295C: 55                 push        ebp
  0040295D: 8B EC              mov         ebp,esp
  0040295F: 51                 push        ecx
  00402960: 83 3D B4 50 40 00  cmp         dword ptr [___isa_available],1
            01
  00402967: 8B 4D 08           mov         ecx,dword ptr [ebp+8]
  0040296A: 7C 5C              jl          004029C8
  0040296C: 81 F9 B4 02 00 C0  cmp         ecx,0C00002B4h
  00402972: 74 08              je          0040297C
  00402974: 81 F9 B5 02 00 C0  cmp         ecx,0C00002B5h
  0040297A: 75 4C              jne         004029C8
  0040297C: 0F AE 5D FC        stmxcsr     dword ptr [ebp-4]
  00402980: 8B 45 FC           mov         eax,dword ptr [ebp-4]
  00402983: 83 F0 3F           xor         eax,3Fh
  00402986: A8 81              test        al,81h
  00402988: 74 42              je          004029CC
  0040298A: A9 04 02 00 00     test        eax,204h
  0040298F: 75 07              jne         00402998
  00402991: B8 8E 00 00 C0     mov         eax,0C000008Eh
  00402996: C9                 leave
  00402997: C3                 ret
  00402998: A9 02 01 00 00     test        eax,102h
  0040299D: 74 2D              je          004029CC
  0040299F: A9 08 04 00 00     test        eax,408h
  004029A4: 75 07              jne         004029AD
  004029A6: B8 91 00 00 C0     mov         eax,0C0000091h
  004029AB: C9                 leave
  004029AC: C3                 ret
  004029AD: A9 10 08 00 00     test        eax,810h
  004029B2: 75 07              jne         004029BB
  004029B4: B8 93 00 00 C0     mov         eax,0C0000093h
  004029B9: C9                 leave
  004029BA: C3                 ret
  004029BB: A9 20 10 00 00     test        eax,1020h
  004029C0: B8 8F 00 00 C0     mov         eax,0C000008Fh
  004029C5: 0F 44 C8           cmove       ecx,eax
  004029C8: 8B C1              mov         eax,ecx
  004029CA: C9                 leave
  004029CB: C3                 ret
  004029CC: B8 90 00 00 C0     mov         eax,0C0000090h
  004029D1: C9                 leave
  004029D2: C3                 ret
  004029D3: CC CC CC CC CC CC CC CC CC CC CC CC CC           .............
__alloca_probe:
  004029E0: 51                 push        ecx
  004029E1: 8D 4C 24 04        lea         ecx,[esp+4]
  004029E5: 2B C8              sub         ecx,eax
  004029E7: 1B C0              sbb         eax,eax
  004029E9: F7 D0              not         eax
  004029EB: 23 C8              and         ecx,eax
  004029ED: 8B C4              mov         eax,esp
  004029EF: 25 00 F0 FF FF     and         eax,0FFFFF000h
  004029F4: 3B C8              cmp         ecx,eax
  004029F6: 72 0A              jb          00402A02
  004029F8: 8B C1              mov         eax,ecx
  004029FA: 59                 pop         ecx
  004029FB: 94                 xchg        eax,esp
  004029FC: 8B 00              mov         eax,dword ptr [eax]
  004029FE: 89 04 24           mov         dword ptr [esp],eax
  00402A01: C3                 ret
  00402A02: 2D 00 10 00 00     sub         eax,1000h
  00402A07: 85 00              test        dword ptr [eax],eax
  00402A09: EB E9              jmp         004029F4
  00402A0B: CC CC CC CC CC                                   .....
__ltod3:
  00402A10: F6 05 58 50 40 00  test        byte ptr [___isa_inverted],20h
            20
  00402A17: 75 11              jne         00402A2A
  00402A19: C5 F9 6E C1        vmovd       xmm0,ecx
  00402A1D: C4 E3 79 22 C2 01  vpinsrd     xmm0,xmm0,edx,1
  00402A23: 62 F1 FE 08 E6 C0  vcvtqq2pd   xmm0,xmm0
  00402A29: C3                 ret
  00402A2A: 66 0F 6E C1        movd        xmm0,ecx
  00402A2E: 0F 56 05 60 35 40  orps        xmm0,xmmword ptr ds:[403560h]
            00
  00402A35: F2 0F 5C 05 60 35  subsd       xmm0,mmword ptr ds:[403560h]
            40 00
  00402A3D: 85 D2              test        edx,edx
  00402A3F: 74 10              je          00402A51
  00402A41: F2 0F 2A CA        cvtsi2sd    xmm1,edx
  00402A45: F2 0F 59 0D 80 35  mulsd       xmm1,mmword ptr ds:[403580h]
            40 00
  00402A4D: F2 0F 58 C1        addsd       xmm0,xmm1
  00402A51: C3                 ret
_memcpy:
  00402A52: FF 25 28 30 40 00  jmp         dword ptr [__imp__memcpy]
_strncpy:
  00402A58: FF 25 BC 30 40 00  jmp         dword ptr [__imp__strncpy]

  Summary

        1000 .data
        2000 .rdata
        1000 .reloc
        1000 .rsrc
        2000 .text
